ARM GAS  C:\Users\Banni\AppData\Local\Temp\ccvFPZ8V.s 			page 1


   1              		.syntax unified
   2              		.cpu cortex-m0plus
   3              		.fpu softvfp
   4              		.eabi_attribute 20, 1
   5              		.eabi_attribute 21, 1
   6              		.eabi_attribute 23, 3
   7              		.eabi_attribute 24, 1
   8              		.eabi_attribute 25, 1
   9              		.eabi_attribute 26, 1
  10              		.eabi_attribute 30, 1
  11              		.eabi_attribute 34, 0
  12              		.eabi_attribute 18, 4
  13              		.thumb
  14              		.syntax unified
  15              		.file	"CyLib.c"
  16              		.text
  17              	.Ltext0:
  18              		.cfi_sections	.debug_frame
  19              		.section	.text.CySysClkImoStart,"ax",%progbits
  20              		.align	2
  21              		.global	CySysClkImoStart
  22              		.code	16
  23              		.thumb_func
  24              		.type	CySysClkImoStart, %function
  25              	CySysClkImoStart:
  26              	.LFB1:
  27              		.file 1 "Generated_Source\\PSoC4\\CyLib.c"
   1:Generated_Source\PSoC4/CyLib.c **** /***************************************************************************//**
   2:Generated_Source\PSoC4/CyLib.c **** * \file CyLib.c
   3:Generated_Source\PSoC4/CyLib.c **** * \version 5.70
   4:Generated_Source\PSoC4/CyLib.c **** *
   5:Generated_Source\PSoC4/CyLib.c **** * \brief Provides a system API for the Clocking, Interrupts, SysTick, and
   6:Generated_Source\PSoC4/CyLib.c **** * Voltage Detect.
   7:Generated_Source\PSoC4/CyLib.c **** *
   8:Generated_Source\PSoC4/CyLib.c **** * \note Documentation of the API's in this file is located in the PSoC 4 System
   9:Generated_Source\PSoC4/CyLib.c **** * Reference Guide provided with PSoC Creator.
  10:Generated_Source\PSoC4/CyLib.c **** *
  11:Generated_Source\PSoC4/CyLib.c **** ********************************************************************************
  12:Generated_Source\PSoC4/CyLib.c **** * \copyright
  13:Generated_Source\PSoC4/CyLib.c **** * Copyright 2010-2017, Cypress Semiconductor Corporation.  All rights reserved.
  14:Generated_Source\PSoC4/CyLib.c **** * You may use this file only in accordance with the license, terms, conditions,
  15:Generated_Source\PSoC4/CyLib.c **** * disclaimers, and limitations in the end user license agreement accompanying
  16:Generated_Source\PSoC4/CyLib.c **** * the software package with which this file was provided.
  17:Generated_Source\PSoC4/CyLib.c **** *******************************************************************************/
  18:Generated_Source\PSoC4/CyLib.c **** 
  19:Generated_Source\PSoC4/CyLib.c **** #include "CyLib.h"
  20:Generated_Source\PSoC4/CyLib.c **** 
  21:Generated_Source\PSoC4/CyLib.c **** /* CySysClkWriteImoFreq() || CySysClkImoEnableWcoLock() */
  22:Generated_Source\PSoC4/CyLib.c **** #if ((CY_IP_SRSSV2 && CY_IP_FMLT) || CY_IP_IMO_TRIMMABLE_BY_WCO)
  23:Generated_Source\PSoC4/CyLib.c ****     #include "CyFlash.h"
  24:Generated_Source\PSoC4/CyLib.c **** #endif /* (CY_IP_SRSSV2 && CY_IP_FMLT) */
  25:Generated_Source\PSoC4/CyLib.c **** 
  26:Generated_Source\PSoC4/CyLib.c **** /* Do not use these definitions directly in your application */
  27:Generated_Source\PSoC4/CyLib.c **** uint32 cydelayFreqHz  = CYDEV_BCLK__SYSCLK__HZ;
  28:Generated_Source\PSoC4/CyLib.c **** uint32 cydelayFreqKhz = (CYDEV_BCLK__SYSCLK__HZ + CY_DELAY_1K_MINUS_1_THRESHOLD) / CY_DELAY_1K_THRE
  29:Generated_Source\PSoC4/CyLib.c **** uint8  cydelayFreqMhz = (uint8)((CYDEV_BCLK__SYSCLK__HZ + CY_DELAY_1M_MINUS_1_THRESHOLD) / CY_DELAY
  30:Generated_Source\PSoC4/CyLib.c **** uint32 cydelay32kMs   = CY_DELAY_MS_OVERFLOW * ((CYDEV_BCLK__SYSCLK__HZ + CY_DELAY_1K_MINUS_1_THRES
ARM GAS  C:\Users\Banni\AppData\Local\Temp\ccvFPZ8V.s 			page 2


  31:Generated_Source\PSoC4/CyLib.c ****                         CY_DELAY_1K_THRESHOLD);
  32:Generated_Source\PSoC4/CyLib.c **** 
  33:Generated_Source\PSoC4/CyLib.c **** 
  34:Generated_Source\PSoC4/CyLib.c **** static cySysTickCallback CySysTickCallbacks[CY_SYS_SYST_NUM_OF_CALLBACKS];
  35:Generated_Source\PSoC4/CyLib.c **** static void CySysTickServiceCallbacks(void);
  36:Generated_Source\PSoC4/CyLib.c **** 
  37:Generated_Source\PSoC4/CyLib.c **** #if (CY_IP_PLL)
  38:Generated_Source\PSoC4/CyLib.c ****     static uint32 CySysClkPllGetBypassMode(uint32 pll);
  39:Generated_Source\PSoC4/CyLib.c ****     static cystatus CySysClkPllConfigChangeAllowed(uint32 pll);
  40:Generated_Source\PSoC4/CyLib.c **** #endif /* (CY_IP_PLL) */
  41:Generated_Source\PSoC4/CyLib.c **** 
  42:Generated_Source\PSoC4/CyLib.c **** 
  43:Generated_Source\PSoC4/CyLib.c **** /***************************************************************************//**
  44:Generated_Source\PSoC4/CyLib.c **** * Indicates whether or not the SysTick has been initialized. The variable is
  45:Generated_Source\PSoC4/CyLib.c **** * initialized to 0 and set to 1 the first time CySysTickStart() is called.
  46:Generated_Source\PSoC4/CyLib.c **** *
  47:Generated_Source\PSoC4/CyLib.c **** * This allows the component to restart without reinitialization after the first
  48:Generated_Source\PSoC4/CyLib.c **** * call to the CySysTickStart() routine.
  49:Generated_Source\PSoC4/CyLib.c **** *
  50:Generated_Source\PSoC4/CyLib.c **** * If reinitialization of the SysTick is required, call CySysTickInit() before
  51:Generated_Source\PSoC4/CyLib.c **** * calling CySysTickStart(). Alternatively, the SysTick can be reinitialized by
  52:Generated_Source\PSoC4/CyLib.c **** * calling the CySysTickInit() and CySysTickEnable() functions.
  53:Generated_Source\PSoC4/CyLib.c **** *******************************************************************************/
  54:Generated_Source\PSoC4/CyLib.c **** uint32 CySysTickInitVar = 0u;
  55:Generated_Source\PSoC4/CyLib.c **** 
  56:Generated_Source\PSoC4/CyLib.c **** 
  57:Generated_Source\PSoC4/CyLib.c **** #if(CY_IP_SRSSV2)
  58:Generated_Source\PSoC4/CyLib.c ****         /* Conversion between CySysClkWriteImoFreq() parameter and register's value */
  59:Generated_Source\PSoC4/CyLib.c ****         const uint8 cyImoFreqMhz2Reg[CY_SYS_CLK_IMO_FREQ_TABLE_SIZE] = {
  60:Generated_Source\PSoC4/CyLib.c ****             /*  3 MHz */ 0x03u,  /*  4 MHz */ 0x04u,  /*  5 MHz */ 0x05u,  /*  6 MHz */ 0x06u,
  61:Generated_Source\PSoC4/CyLib.c ****             /*  7 MHz */ 0x07u,  /*  8 MHz */ 0x08u,  /*  9 MHz */ 0x09u,  /* 10 MHz */ 0x0Au,
  62:Generated_Source\PSoC4/CyLib.c ****             /* 11 MHz */ 0x0Bu,  /* 12 MHz */ 0x0Cu,  /* 13 MHz */ 0x0Eu,  /* 14 MHz */ 0x0Fu,
  63:Generated_Source\PSoC4/CyLib.c ****             /* 15 MHz */ 0x10u,  /* 16 MHz */ 0x11u,  /* 17 MHz */ 0x12u,  /* 18 MHz */ 0x13u,
  64:Generated_Source\PSoC4/CyLib.c ****             /* 19 MHz */ 0x14u,  /* 20 MHz */ 0x15u,  /* 21 MHz */ 0x16u,  /* 22 MHz */ 0x17u,
  65:Generated_Source\PSoC4/CyLib.c ****             /* 23 MHz */ 0x18u,  /* 24 MHz */ 0x19u,  /* 25 MHz */ 0x1Bu,  /* 26 MHz */ 0x1Cu,
  66:Generated_Source\PSoC4/CyLib.c ****             /* 27 MHz */ 0x1Du,  /* 28 MHz */ 0x1Eu,  /* 29 MHz */ 0x1Fu,  /* 30 MHz */ 0x20u,
  67:Generated_Source\PSoC4/CyLib.c ****             /* 31 MHz */ 0x21u,  /* 32 MHz */ 0x22u,  /* 33 MHz */ 0x23u,  /* 34 MHz */ 0x25u,
  68:Generated_Source\PSoC4/CyLib.c ****             /* 35 MHz */ 0x26u,  /* 36 MHz */ 0x27u,  /* 37 MHz */ 0x28u,  /* 38 MHz */ 0x29u,
  69:Generated_Source\PSoC4/CyLib.c ****             /* 39 MHz */ 0x2Au,  /* 40 MHz */ 0x2Bu,  /* 41 MHz */ 0x2Eu,  /* 42 MHz */ 0x2Fu,
  70:Generated_Source\PSoC4/CyLib.c ****             /* 43 MHz */ 0x30u,  /* 44 MHz */ 0x31u,  /* 45 MHz */ 0x32u,  /* 46 MHz */ 0x33u,
  71:Generated_Source\PSoC4/CyLib.c ****             /* 47 MHz */ 0x34u,  /* 48 MHz */ 0x35u };
  72:Generated_Source\PSoC4/CyLib.c **** #endif /* (CY_IP_SRSSV2) */
  73:Generated_Source\PSoC4/CyLib.c **** 
  74:Generated_Source\PSoC4/CyLib.c **** #if (CY_IP_IMO_TRIMMABLE_BY_WCO)
  75:Generated_Source\PSoC4/CyLib.c ****         /* Conversion between IMO frequency and WCO DPLL max offset steps */
  76:Generated_Source\PSoC4/CyLib.c ****         const uint8 cyImoFreqMhz2DpllOffset[CY_SYS_CLK_IMO_FREQ_WCO_DPLL_TABLE_SIZE] = {
  77:Generated_Source\PSoC4/CyLib.c ****             /* 26 MHz */  238u, /* 27 MHz */  219u, /* 28 MHz */  201u, /* 29 MHz */  185u,
  78:Generated_Source\PSoC4/CyLib.c ****             /* 30 MHz */  170u, /* 31 MHz */  155u, /* 32 MHz */  142u, /* 33 MHz */  130u,
  79:Generated_Source\PSoC4/CyLib.c ****             /* 34 MHz */  118u, /* 35 MHz */  107u, /* 36 MHz */   96u, /* 37 MHz */  86u,
  80:Generated_Source\PSoC4/CyLib.c ****             /* 38 MHz */   77u, /* 39 MHz */   68u, /* 40 MHz */   59u, /* 41 MHz */  51u,
  81:Generated_Source\PSoC4/CyLib.c ****             /* 42 MHz */   44u, /* 43 MHz */   36u, /* 44 MHz */   29u, /* 45 MHz */  23u,
  82:Generated_Source\PSoC4/CyLib.c ****             /* 46 MHz */   16u, /* 47 MHz */   10u, /* 48 MHz */   4u };
  83:Generated_Source\PSoC4/CyLib.c **** #endif /* (CY_IP_IMO_TRIMMABLE_BY_WCO) */
  84:Generated_Source\PSoC4/CyLib.c **** 
  85:Generated_Source\PSoC4/CyLib.c **** /* Stored CY_SYS_CLK_IMO_TRIM4_REG when modified for USB lock */
  86:Generated_Source\PSoC4/CyLib.c **** #if (CY_IP_IMO_TRIMMABLE_BY_USB && CY_IP_SRSSV2)
  87:Generated_Source\PSoC4/CyLib.c ****     uint32 CySysClkImoTrim4 = 0u;
ARM GAS  C:\Users\Banni\AppData\Local\Temp\ccvFPZ8V.s 			page 3


  88:Generated_Source\PSoC4/CyLib.c ****     uint32 CySysClkImoTrim5 = 0u;
  89:Generated_Source\PSoC4/CyLib.c **** #endif /* (CY_IP_IMO_TRIMMABLE_BY_USB && CY_IP_SRSSV2) */
  90:Generated_Source\PSoC4/CyLib.c **** 
  91:Generated_Source\PSoC4/CyLib.c **** /* Stored PUMP_SEL configuration during disable (IMO output by default) */
  92:Generated_Source\PSoC4/CyLib.c **** uint32 CySysClkPumpConfig = CY_SYS_CLK_PUMP_ENABLE;
  93:Generated_Source\PSoC4/CyLib.c **** 
  94:Generated_Source\PSoC4/CyLib.c **** /*******************************************************************************
  95:Generated_Source\PSoC4/CyLib.c **** * Function Name: CySysClkImoStart
  96:Generated_Source\PSoC4/CyLib.c **** ****************************************************************************//**
  97:Generated_Source\PSoC4/CyLib.c **** *
  98:Generated_Source\PSoC4/CyLib.c **** * Enables the IMO.
  99:Generated_Source\PSoC4/CyLib.c **** *
 100:Generated_Source\PSoC4/CyLib.c **** * For PSoC 4100M / PSoC 4200M / PSoC 4000S / PSoC 4100S / PSoC Analog 
 101:Generated_Source\PSoC4/CyLib.c **** * Coprocessor devices, this function will also enable WCO lock if selected in 
 102:Generated_Source\PSoC4/CyLib.c **** * the Design Wide Resources tab.
 103:Generated_Source\PSoC4/CyLib.c **** *
 104:Generated_Source\PSoC4/CyLib.c **** * For PSoC 4200L devices, this function will also enable USB lock if selected
 105:Generated_Source\PSoC4/CyLib.c **** * in the Design Wide Resources tab.
 106:Generated_Source\PSoC4/CyLib.c **** *
 107:Generated_Source\PSoC4/CyLib.c **** *******************************************************************************/
 108:Generated_Source\PSoC4/CyLib.c **** void CySysClkImoStart(void)
 109:Generated_Source\PSoC4/CyLib.c **** {
  28              		.loc 1 109 0
  29              		.cfi_startproc
  30              		@ args = 0, pretend = 0, frame = 0
  31              		@ frame_needed = 0, uses_anonymous_args = 0
  32              		@ link register save eliminated.
 110:Generated_Source\PSoC4/CyLib.c ****     CY_SYS_CLK_IMO_CONFIG_REG |= CY_SYS_CLK_IMO_CONFIG_ENABLE;
  33              		.loc 1 110 0
  34 0000 034A     		ldr	r2, .L2
  35 0002 1368     		ldr	r3, [r2]
  36 0004 8021     		movs	r1, #128
  37 0006 0906     		lsls	r1, r1, #24
  38 0008 0B43     		orrs	r3, r1
  39 000a 1360     		str	r3, [r2]
 111:Generated_Source\PSoC4/CyLib.c **** 
 112:Generated_Source\PSoC4/CyLib.c ****     #if (CY_IP_IMO_TRIMMABLE_BY_WCO)
 113:Generated_Source\PSoC4/CyLib.c ****         #if (CYDEV_IMO_TRIMMED_BY_WCO == 1u)
 114:Generated_Source\PSoC4/CyLib.c ****             CySysClkImoEnableWcoLock();
 115:Generated_Source\PSoC4/CyLib.c ****         #endif  /* (CYDEV_IMO_TRIMMED_BY_WCO == 1u) */
 116:Generated_Source\PSoC4/CyLib.c ****     #endif  /* (CY_IP_IMO_TRIMMABLE_BY_WCO) */
 117:Generated_Source\PSoC4/CyLib.c **** 
 118:Generated_Source\PSoC4/CyLib.c **** 
 119:Generated_Source\PSoC4/CyLib.c ****     #if (CY_IP_IMO_TRIMMABLE_BY_USB)
 120:Generated_Source\PSoC4/CyLib.c ****         #if (CYDEV_IMO_TRIMMED_BY_USB == 1u)
 121:Generated_Source\PSoC4/CyLib.c ****             CySysClkImoEnableUsbLock();
 122:Generated_Source\PSoC4/CyLib.c ****         #endif  /* (CYDEV_IMO_TRIMMED_BY_USB == 1u) */
 123:Generated_Source\PSoC4/CyLib.c ****     #endif  /* (CY_IP_IMO_TRIMMABLE_BY_USB) */
 124:Generated_Source\PSoC4/CyLib.c **** 
 125:Generated_Source\PSoC4/CyLib.c **** }
  40              		.loc 1 125 0
  41              		@ sp needed
  42 000c 7047     		bx	lr
  43              	.L3:
  44 000e C046     		.align	2
  45              	.L2:
  46 0010 30000340 		.word	1073938480
ARM GAS  C:\Users\Banni\AppData\Local\Temp\ccvFPZ8V.s 			page 4


  47              		.cfi_endproc
  48              	.LFE1:
  49              		.size	CySysClkImoStart, .-CySysClkImoStart
  50              		.section	.text.CySysClkImoDisableWcoLock,"ax",%progbits
  51              		.align	2
  52              		.global	CySysClkImoDisableWcoLock
  53              		.code	16
  54              		.thumb_func
  55              		.type	CySysClkImoDisableWcoLock, %function
  56              	CySysClkImoDisableWcoLock:
  57              	.LFB4:
 126:Generated_Source\PSoC4/CyLib.c **** 
 127:Generated_Source\PSoC4/CyLib.c **** 
 128:Generated_Source\PSoC4/CyLib.c **** /*******************************************************************************
 129:Generated_Source\PSoC4/CyLib.c **** * Function Name: CySysClkImoStop
 130:Generated_Source\PSoC4/CyLib.c **** ****************************************************************************//**
 131:Generated_Source\PSoC4/CyLib.c **** *
 132:Generated_Source\PSoC4/CyLib.c **** * Disables the IMO.
 133:Generated_Source\PSoC4/CyLib.c **** *
 134:Generated_Source\PSoC4/CyLib.c **** * For PSoC 4100M / PSoC 4200M / PSoC 4200L / PSoC 4000S / PSoC 4100S / 
 135:Generated_Source\PSoC4/CyLib.c **** * PSoC Analog Coprocessor devices, this function will also disable WCO lock.
 136:Generated_Source\PSoC4/CyLib.c **** *
 137:Generated_Source\PSoC4/CyLib.c **** * For PSoC PSoC 4200L devices, this function will also disable USB lock.
 138:Generated_Source\PSoC4/CyLib.c **** *
 139:Generated_Source\PSoC4/CyLib.c **** *******************************************************************************/
 140:Generated_Source\PSoC4/CyLib.c **** void CySysClkImoStop(void)
 141:Generated_Source\PSoC4/CyLib.c **** {
 142:Generated_Source\PSoC4/CyLib.c ****     #if (CY_IP_IMO_TRIMMABLE_BY_WCO)
 143:Generated_Source\PSoC4/CyLib.c ****         CySysClkImoDisableWcoLock();
 144:Generated_Source\PSoC4/CyLib.c ****     #endif  /* (CY_IP_IMO_TRIMMABLE_BY_WCO) */
 145:Generated_Source\PSoC4/CyLib.c **** 
 146:Generated_Source\PSoC4/CyLib.c ****     #if (CY_IP_IMO_TRIMMABLE_BY_USB)
 147:Generated_Source\PSoC4/CyLib.c ****         CySysClkImoDisableUsbLock();
 148:Generated_Source\PSoC4/CyLib.c ****     #endif  /* (CY_IP_IMO_TRIMMABLE_BY_USB) */
 149:Generated_Source\PSoC4/CyLib.c **** 
 150:Generated_Source\PSoC4/CyLib.c ****     CY_SYS_CLK_IMO_CONFIG_REG &= ( uint32 ) ( ~( uint32 )CY_SYS_CLK_IMO_CONFIG_ENABLE);
 151:Generated_Source\PSoC4/CyLib.c **** }
 152:Generated_Source\PSoC4/CyLib.c **** 
 153:Generated_Source\PSoC4/CyLib.c **** #if (CY_IP_IMO_TRIMMABLE_BY_WCO)
 154:Generated_Source\PSoC4/CyLib.c **** 
 155:Generated_Source\PSoC4/CyLib.c ****     /*******************************************************************************
 156:Generated_Source\PSoC4/CyLib.c ****     * Function Name: CySysClkImoEnableWcoLock
 157:Generated_Source\PSoC4/CyLib.c ****     ****************************************************************************//**
 158:Generated_Source\PSoC4/CyLib.c ****     *
 159:Generated_Source\PSoC4/CyLib.c ****     * Enables the IMO to WCO lock feature. This function works only if the WCO is
 160:Generated_Source\PSoC4/CyLib.c ****     * already enabled. If the WCO is not enabled then this function returns
 161:Generated_Source\PSoC4/CyLib.c ****     * without enabling the lock feature.
 162:Generated_Source\PSoC4/CyLib.c ****     *
 163:Generated_Source\PSoC4/CyLib.c ****     * It takes up to 20 ms for the IMO to stabilize. The delay is implemented with
 164:Generated_Source\PSoC4/CyLib.c ****     * CyDelay() function. The delay interval is measured based on the system
 165:Generated_Source\PSoC4/CyLib.c ****     * frequency defined by PSoC Creator at build time. If System clock frequency
 166:Generated_Source\PSoC4/CyLib.c ****     * is changed in runtime, the CyDelayFreq() with the appropriate parameter
 167:Generated_Source\PSoC4/CyLib.c ****     * should be called.
 168:Generated_Source\PSoC4/CyLib.c ****     *
 169:Generated_Source\PSoC4/CyLib.c ****     * For PSoC 4200L devices, note that the IMO can lock to either WCO or USB
 170:Generated_Source\PSoC4/CyLib.c ****     * but not both.
 171:Generated_Source\PSoC4/CyLib.c ****     *
ARM GAS  C:\Users\Banni\AppData\Local\Temp\ccvFPZ8V.s 			page 5


 172:Generated_Source\PSoC4/CyLib.c ****     * This function is applicable for PSoC 4100M / PSoC 4200M / PSoC 4000S /
 173:Generated_Source\PSoC4/CyLib.c ****     * PSoC 4100S / PSoC Analog Coprocessor / PSoC 4200L.
 174:Generated_Source\PSoC4/CyLib.c ****     *
 175:Generated_Source\PSoC4/CyLib.c ****     *******************************************************************************/
 176:Generated_Source\PSoC4/CyLib.c ****     void CySysClkImoEnableWcoLock(void)
 177:Generated_Source\PSoC4/CyLib.c ****     {
 178:Generated_Source\PSoC4/CyLib.c ****         #if(CY_IP_SRSSV2)
 179:Generated_Source\PSoC4/CyLib.c ****             uint32 i;
 180:Generated_Source\PSoC4/CyLib.c ****         #endif  /* (CY_IP_SRSSV2) */
 181:Generated_Source\PSoC4/CyLib.c **** 
 182:Generated_Source\PSoC4/CyLib.c ****         uint32 freq;
 183:Generated_Source\PSoC4/CyLib.c ****         uint8  interruptState;
 184:Generated_Source\PSoC4/CyLib.c ****         uint32 regTmp;
 185:Generated_Source\PSoC4/CyLib.c ****         uint32 lfLimit = 0u;
 186:Generated_Source\PSoC4/CyLib.c ****         volatile uint32 flashCtlReg;
 187:Generated_Source\PSoC4/CyLib.c **** 
 188:Generated_Source\PSoC4/CyLib.c ****         if (0u != CySysClkWcoEnabled())
 189:Generated_Source\PSoC4/CyLib.c ****         {
 190:Generated_Source\PSoC4/CyLib.c ****             interruptState = CyEnterCriticalSection();
 191:Generated_Source\PSoC4/CyLib.c **** 
 192:Generated_Source\PSoC4/CyLib.c ****             /* Set oscillator interface control port to WCO */
 193:Generated_Source\PSoC4/CyLib.c ****             #if (CY_IP_IMO_TRIMMABLE_BY_WCO && CY_IP_IMO_TRIMMABLE_BY_USB)
 194:Generated_Source\PSoC4/CyLib.c ****                 CY_SYS_CLK_OSCINTF_CTL_REG =
 195:Generated_Source\PSoC4/CyLib.c ****                     (CY_SYS_CLK_OSCINTF_CTL_REG & (uint32) ~CY_SYS_CLK_OSCINTF_CTL_PORT_SEL_MASK) |
 196:Generated_Source\PSoC4/CyLib.c ****                     CY_SYS_CLK_OSCINTF_CTL_PORT_SEL_WCO;
 197:Generated_Source\PSoC4/CyLib.c ****             #endif /* (CY_IP_IMO_TRIMMABLE_BY_WCO && CY_IP_IMO_TRIMMABLE_BY_USB) */
 198:Generated_Source\PSoC4/CyLib.c **** 
 199:Generated_Source\PSoC4/CyLib.c ****             /* Get current IMO frequency based on the register value */
 200:Generated_Source\PSoC4/CyLib.c ****             #if(CY_IP_SRSSV2)
 201:Generated_Source\PSoC4/CyLib.c ****                 freq = CY_SYS_CLK_IMO_MIN_FREQ_MHZ;
 202:Generated_Source\PSoC4/CyLib.c ****                 for(i = 0u; i < CY_SYS_CLK_IMO_FREQ_TABLE_SIZE; i++)
 203:Generated_Source\PSoC4/CyLib.c ****                 {
 204:Generated_Source\PSoC4/CyLib.c ****                     if ((uint8) (CY_SYS_CLK_IMO_TRIM2_REG & CY_SYS_CLK_IMO_FREQ_BITS_MASK) == cyImo
 205:Generated_Source\PSoC4/CyLib.c ****                     {
 206:Generated_Source\PSoC4/CyLib.c ****                         freq = i + CY_SYS_CLK_IMO_FREQ_TABLE_OFFSET;
 207:Generated_Source\PSoC4/CyLib.c ****                         break;
 208:Generated_Source\PSoC4/CyLib.c ****                     }
 209:Generated_Source\PSoC4/CyLib.c ****                 }
 210:Generated_Source\PSoC4/CyLib.c ****             #else
 211:Generated_Source\PSoC4/CyLib.c ****                 /* Calculate frequency by shifting register field value and adding constant. */
 212:Generated_Source\PSoC4/CyLib.c ****                 #if(CY_IP_SRSSLT)
 213:Generated_Source\PSoC4/CyLib.c ****                     freq = (((uint32) ((CY_SYS_CLK_IMO_SELECT_REG & ((uint32) CY_SYS_CLK_IMO_SELECT
 214:Generated_Source\PSoC4/CyLib.c ****                                         CY_SYS_CLK_IMO_SELECT_FREQ_SHIFT) + CY_SYS_CLK_IMO_MIN_FREQ
 215:Generated_Source\PSoC4/CyLib.c ****                                       ((CY_SYS_CLK_SELECT_REG >> CY_SYS_CLK_SELECT_HFCLK_DIV_SHIFT)
 216:Generated_Source\PSoC4/CyLib.c ****                                        (uint32) CY_SYS_CLK_SELECT_HFCLK_DIV_MASK));
 217:Generated_Source\PSoC4/CyLib.c ****                 #else
 218:Generated_Source\PSoC4/CyLib.c ****                     freq = ((uint32) ((CY_SYS_CLK_IMO_SELECT_REG & ((uint32) CY_SYS_CLK_IMO_SELECT_
 219:Generated_Source\PSoC4/CyLib.c ****                                        CY_SYS_CLK_IMO_SELECT_FREQ_SHIFT) + CY_SYS_CLK_IMO_MIN_FREQ_
 220:Generated_Source\PSoC4/CyLib.c ****                 #endif  /* (CY_IP_SRSSLT) */
 221:Generated_Source\PSoC4/CyLib.c **** 
 222:Generated_Source\PSoC4/CyLib.c ****             #endif  /* (CY_IP_SRSSV2) */
 223:Generated_Source\PSoC4/CyLib.c **** 
 224:Generated_Source\PSoC4/CyLib.c ****             /* For the WCO locking mode, the IMO gain needs to be CY_SYS_CLK_IMO_TRIM4_GAIN */
 225:Generated_Source\PSoC4/CyLib.c ****             #if(CY_IP_SRSSV2)
 226:Generated_Source\PSoC4/CyLib.c ****                 if ((CY_SYS_CLK_IMO_TRIM4_REG & CY_SYS_CLK_IMO_TRIM4_GAIN_MASK) == 0u)
 227:Generated_Source\PSoC4/CyLib.c ****                 {
 228:Generated_Source\PSoC4/CyLib.c **** 			         CY_SYS_CLK_IMO_TRIM4_REG = (CY_SYS_CLK_IMO_TRIM4_REG & (uint32) ~CY_SYS_CLK_IMO_TRIM4_G
ARM GAS  C:\Users\Banni\AppData\Local\Temp\ccvFPZ8V.s 			page 6


 229:Generated_Source\PSoC4/CyLib.c **** 			                  				     CY_SYS_CLK_IMO_TRIM4_WCO_GAIN;
 230:Generated_Source\PSoC4/CyLib.c ****                 }
 231:Generated_Source\PSoC4/CyLib.c ****             #endif /* (CY_IP_SRSSV2) */
 232:Generated_Source\PSoC4/CyLib.c **** 
 233:Generated_Source\PSoC4/CyLib.c ****             regTmp  = CY_SYS_CLK_WCO_DPLL_REG & ~(CY_SYS_CLK_WCO_DPLL_MULT_MASK |
 234:Generated_Source\PSoC4/CyLib.c ****                                                   CY_SYS_CLK_WCO_CONFIG_DPLL_LF_IGAIN_MASK |
 235:Generated_Source\PSoC4/CyLib.c ****                                                   CY_SYS_CLK_WCO_CONFIG_DPLL_LF_PGAIN_MASK |
 236:Generated_Source\PSoC4/CyLib.c ****                                                   CY_SYS_CLK_WCO_CONFIG_DPLL_LF_LIMIT_MASK);
 237:Generated_Source\PSoC4/CyLib.c **** 
 238:Generated_Source\PSoC4/CyLib.c ****             /* Set multiplier to determine IMO frequency in multiples of the WCO frequency */
 239:Generated_Source\PSoC4/CyLib.c ****             regTmp |= (CY_SYS_CLK_WCO_DPLL_MULT_VALUE(freq) & CY_SYS_CLK_WCO_DPLL_MULT_MASK);
 240:Generated_Source\PSoC4/CyLib.c **** 
 241:Generated_Source\PSoC4/CyLib.c ****             /* Set DPLL Loop Filter Integral and Proportional Gains Setting */
 242:Generated_Source\PSoC4/CyLib.c ****             regTmp |= (CY_SYS_CLK_WCO_CONFIG_DPLL_LF_IGAIN | CY_SYS_CLK_WCO_CONFIG_DPLL_LF_PGAIN);
 243:Generated_Source\PSoC4/CyLib.c **** 
 244:Generated_Source\PSoC4/CyLib.c ****             /* Set maximum allowed IMO offset */
 245:Generated_Source\PSoC4/CyLib.c ****             if (freq < CY_SYS_CLK_IMO_FREQ_WCO_DPLL_SAFE_POINT)
 246:Generated_Source\PSoC4/CyLib.c ****             {
 247:Generated_Source\PSoC4/CyLib.c ****                 regTmp |= (CY_SYS_CLK_WCO_CONFIG_DPLL_LF_LIMIT_MAX << CY_SYS_CLK_WCO_CONFIG_DPLL_LF
 248:Generated_Source\PSoC4/CyLib.c ****             }
 249:Generated_Source\PSoC4/CyLib.c ****             else
 250:Generated_Source\PSoC4/CyLib.c ****             {
 251:Generated_Source\PSoC4/CyLib.c ****                 lfLimit = (uint32) CY_SFLASH_IMO_TRIM_REG(freq - CY_SYS_CLK_IMO_MIN_FREQ_MHZ) +
 252:Generated_Source\PSoC4/CyLib.c ****                     cyImoFreqMhz2DpllOffset[freq - CY_SYS_CLK_IMO_FREQ_WCO_DPLL_TABLE_OFFSET];
 253:Generated_Source\PSoC4/CyLib.c **** 
 254:Generated_Source\PSoC4/CyLib.c ****                 lfLimit = (lfLimit > CY_SYS_CLK_WCO_CONFIG_DPLL_LF_LIMIT_MAX) ?
 255:Generated_Source\PSoC4/CyLib.c ****                     CY_SYS_CLK_WCO_CONFIG_DPLL_LF_LIMIT_MAX : lfLimit;
 256:Generated_Source\PSoC4/CyLib.c **** 
 257:Generated_Source\PSoC4/CyLib.c ****                 regTmp |= (lfLimit << CY_SYS_CLK_WCO_CONFIG_DPLL_LF_LIMIT_SHIFT);
 258:Generated_Source\PSoC4/CyLib.c ****             }
 259:Generated_Source\PSoC4/CyLib.c **** 
 260:Generated_Source\PSoC4/CyLib.c ****             CY_SYS_CLK_WCO_DPLL_REG = regTmp;
 261:Generated_Source\PSoC4/CyLib.c **** 
 262:Generated_Source\PSoC4/CyLib.c ****             flashCtlReg = CY_FLASH_CTL_REG;
 263:Generated_Source\PSoC4/CyLib.c ****             CySysFlashSetWaitCycles(CY_SYS_CLK_IMO_MAX_FREQ_MHZ);
 264:Generated_Source\PSoC4/CyLib.c ****             CY_SYS_CLK_WCO_CONFIG_REG |= CY_SYS_CLK_WCO_CONFIG_DPLL_ENABLE;
 265:Generated_Source\PSoC4/CyLib.c ****             CyDelay(CY_SYS_CLK_WCO_IMO_TIMEOUT_MS);
 266:Generated_Source\PSoC4/CyLib.c ****             CY_FLASH_CTL_REG = flashCtlReg;
 267:Generated_Source\PSoC4/CyLib.c **** 
 268:Generated_Source\PSoC4/CyLib.c ****             CyExitCriticalSection(interruptState);
 269:Generated_Source\PSoC4/CyLib.c ****         }
 270:Generated_Source\PSoC4/CyLib.c ****     }
 271:Generated_Source\PSoC4/CyLib.c **** 
 272:Generated_Source\PSoC4/CyLib.c **** 
 273:Generated_Source\PSoC4/CyLib.c ****     /*******************************************************************************
 274:Generated_Source\PSoC4/CyLib.c ****     * Function Name: CySysClkImoDisableWcoLock
 275:Generated_Source\PSoC4/CyLib.c ****     ****************************************************************************//**
 276:Generated_Source\PSoC4/CyLib.c ****     *
 277:Generated_Source\PSoC4/CyLib.c ****     * Disables the IMO to WCO lock feature.
 278:Generated_Source\PSoC4/CyLib.c ****     *
 279:Generated_Source\PSoC4/CyLib.c ****     * For PSoC 4200L devices, note that the IMO can lock to either WCO or USB
 280:Generated_Source\PSoC4/CyLib.c ****     * but not both.
 281:Generated_Source\PSoC4/CyLib.c ****     *
 282:Generated_Source\PSoC4/CyLib.c ****     * This function is applicable for PSoC 4100M / PSoC 4200M / PSoC 4000S /
 283:Generated_Source\PSoC4/CyLib.c ****     * PSoC 4100S / PSoC Analog Coprocessor / PSoC 4200L.
 284:Generated_Source\PSoC4/CyLib.c ****     *
 285:Generated_Source\PSoC4/CyLib.c ****     *******************************************************************************/
ARM GAS  C:\Users\Banni\AppData\Local\Temp\ccvFPZ8V.s 			page 7


 286:Generated_Source\PSoC4/CyLib.c ****     void CySysClkImoDisableWcoLock(void)
 287:Generated_Source\PSoC4/CyLib.c ****     {
  58              		.loc 1 287 0
  59              		.cfi_startproc
  60              		@ args = 0, pretend = 0, frame = 0
  61              		@ frame_needed = 0, uses_anonymous_args = 0
  62              		@ link register save eliminated.
 288:Generated_Source\PSoC4/CyLib.c ****         CY_SYS_CLK_WCO_CONFIG_REG &= (uint32) ~CY_SYS_CLK_WCO_CONFIG_DPLL_ENABLE;
  63              		.loc 1 288 0
  64 0000 024A     		ldr	r2, .L5
  65 0002 1168     		ldr	r1, [r2]
  66 0004 024B     		ldr	r3, .L5+4
  67 0006 0B40     		ands	r3, r1
  68 0008 1360     		str	r3, [r2]
 289:Generated_Source\PSoC4/CyLib.c ****     }
  69              		.loc 1 289 0
  70              		@ sp needed
  71 000a 7047     		bx	lr
  72              	.L6:
  73              		.align	2
  74              	.L5:
  75 000c 00002240 		.word	1075970048
  76 0010 FFFFFFBF 		.word	-1073741825
  77              		.cfi_endproc
  78              	.LFE4:
  79              		.size	CySysClkImoDisableWcoLock, .-CySysClkImoDisableWcoLock
  80              		.section	.text.CySysClkImoStop,"ax",%progbits
  81              		.align	2
  82              		.global	CySysClkImoStop
  83              		.code	16
  84              		.thumb_func
  85              		.type	CySysClkImoStop, %function
  86              	CySysClkImoStop:
  87              	.LFB2:
 141:Generated_Source\PSoC4/CyLib.c ****     #if (CY_IP_IMO_TRIMMABLE_BY_WCO)
  88              		.loc 1 141 0
  89              		.cfi_startproc
  90              		@ args = 0, pretend = 0, frame = 0
  91              		@ frame_needed = 0, uses_anonymous_args = 0
  92 0000 10B5     		push	{r4, lr}
  93              		.cfi_def_cfa_offset 8
  94              		.cfi_offset 4, -8
  95              		.cfi_offset 14, -4
 143:Generated_Source\PSoC4/CyLib.c ****     #endif  /* (CY_IP_IMO_TRIMMABLE_BY_WCO) */
  96              		.loc 1 143 0
  97 0002 FFF7FEFF 		bl	CySysClkImoDisableWcoLock
  98              	.LVL0:
 150:Generated_Source\PSoC4/CyLib.c **** }
  99              		.loc 1 150 0
 100 0006 034A     		ldr	r2, .L8
 101 0008 1368     		ldr	r3, [r2]
 102 000a 5B00     		lsls	r3, r3, #1
 103 000c 5B08     		lsrs	r3, r3, #1
 104 000e 1360     		str	r3, [r2]
 151:Generated_Source\PSoC4/CyLib.c **** 
 105              		.loc 1 151 0
 106              		@ sp needed
ARM GAS  C:\Users\Banni\AppData\Local\Temp\ccvFPZ8V.s 			page 8


 107 0010 10BD     		pop	{r4, pc}
 108              	.L9:
 109 0012 C046     		.align	2
 110              	.L8:
 111 0014 30000340 		.word	1073938480
 112              		.cfi_endproc
 113              	.LFE2:
 114              		.size	CySysClkImoStop, .-CySysClkImoStop
 115              		.section	.text.CySysClkImoGetWcoLock,"ax",%progbits
 116              		.align	2
 117              		.global	CySysClkImoGetWcoLock
 118              		.code	16
 119              		.thumb_func
 120              		.type	CySysClkImoGetWcoLock, %function
 121              	CySysClkImoGetWcoLock:
 122              	.LFB5:
 290:Generated_Source\PSoC4/CyLib.c **** 
 291:Generated_Source\PSoC4/CyLib.c **** 
 292:Generated_Source\PSoC4/CyLib.c ****     /*******************************************************************************
 293:Generated_Source\PSoC4/CyLib.c ****     * Function Name: CySysClkImoGetWcoLock
 294:Generated_Source\PSoC4/CyLib.c ****     ****************************************************************************//**
 295:Generated_Source\PSoC4/CyLib.c ****     *
 296:Generated_Source\PSoC4/CyLib.c ****     * Reports the IMO to WCO lock enable state.
 297:Generated_Source\PSoC4/CyLib.c ****     *
 298:Generated_Source\PSoC4/CyLib.c ****     * This function is applicable for PSoC 4100M / PSoC 4200M / PSoC 4000S /
 299:Generated_Source\PSoC4/CyLib.c ****     * PSoC 4100S / PSoC Analog Coprocessor / PSoC 4200L.
 300:Generated_Source\PSoC4/CyLib.c ****     *
 301:Generated_Source\PSoC4/CyLib.c ****     * \return 1 if IMO to WCO lock is enabled.
 302:Generated_Source\PSoC4/CyLib.c ****     * \return 0 if IMO to WCO lock is disabled.
 303:Generated_Source\PSoC4/CyLib.c ****     *
 304:Generated_Source\PSoC4/CyLib.c ****     *******************************************************************************/
 305:Generated_Source\PSoC4/CyLib.c ****     uint32 CySysClkImoGetWcoLock(void)
 306:Generated_Source\PSoC4/CyLib.c ****     {
 123              		.loc 1 306 0
 124              		.cfi_startproc
 125              		@ args = 0, pretend = 0, frame = 0
 126              		@ frame_needed = 0, uses_anonymous_args = 0
 127              		@ link register save eliminated.
 307:Generated_Source\PSoC4/CyLib.c ****         return ((0u != (CY_SYS_CLK_WCO_CONFIG_REG & CY_SYS_CLK_WCO_CONFIG_DPLL_ENABLE)) ?
 128              		.loc 1 307 0
 129 0000 034B     		ldr	r3, .L12
 130 0002 1868     		ldr	r0, [r3]
 131 0004 8023     		movs	r3, #128
 132 0006 DB05     		lsls	r3, r3, #23
 133 0008 1840     		ands	r0, r3
 308:Generated_Source\PSoC4/CyLib.c ****                 (uint32) 1u :
 134              		.loc 1 308 0
 135 000a 00D0     		beq	.L11
 136 000c 0120     		movs	r0, #1
 137              	.L11:
 309:Generated_Source\PSoC4/CyLib.c ****                 (uint32) 0u);
 310:Generated_Source\PSoC4/CyLib.c ****     }
 138              		.loc 1 310 0
 139              		@ sp needed
 140 000e 7047     		bx	lr
 141              	.L13:
 142              		.align	2
ARM GAS  C:\Users\Banni\AppData\Local\Temp\ccvFPZ8V.s 			page 9


 143              	.L12:
 144 0010 00002240 		.word	1075970048
 145              		.cfi_endproc
 146              	.LFE5:
 147              		.size	CySysClkImoGetWcoLock, .-CySysClkImoGetWcoLock
 148              		.section	.text.CySysClkWriteHfclkDirect,"ax",%progbits
 149              		.align	2
 150              		.global	CySysClkWriteHfclkDirect
 151              		.code	16
 152              		.thumb_func
 153              		.type	CySysClkWriteHfclkDirect, %function
 154              	CySysClkWriteHfclkDirect:
 155              	.LFB6:
 311:Generated_Source\PSoC4/CyLib.c **** 
 312:Generated_Source\PSoC4/CyLib.c **** #endif /* (CY_IP_IMO_TRIMMABLE_BY_WCO) */
 313:Generated_Source\PSoC4/CyLib.c **** 
 314:Generated_Source\PSoC4/CyLib.c **** 
 315:Generated_Source\PSoC4/CyLib.c **** #if (CY_IP_IMO_TRIMMABLE_BY_USB)
 316:Generated_Source\PSoC4/CyLib.c **** 
 317:Generated_Source\PSoC4/CyLib.c ****     /*******************************************************************************
 318:Generated_Source\PSoC4/CyLib.c ****     * Function Name: CySysClkImoEnableUsbLock
 319:Generated_Source\PSoC4/CyLib.c ****     ****************************************************************************//**
 320:Generated_Source\PSoC4/CyLib.c ****     *
 321:Generated_Source\PSoC4/CyLib.c ****     * Enables the IMO to USB lock feature.
 322:Generated_Source\PSoC4/CyLib.c ****     *
 323:Generated_Source\PSoC4/CyLib.c ****     * This function must be called before CySysClkWriteImoFreq().
 324:Generated_Source\PSoC4/CyLib.c ****     *
 325:Generated_Source\PSoC4/CyLib.c ****     * This function is called from CySysClkImoStart() function if USB lock
 326:Generated_Source\PSoC4/CyLib.c ****     * selected in the Design Wide Resources tab.
 327:Generated_Source\PSoC4/CyLib.c ****     *
 328:Generated_Source\PSoC4/CyLib.c ****     * This is applicable for PSoC 4200L family of devices only. For PSoC 4200L
 329:Generated_Source\PSoC4/CyLib.c ****     * devices, the IMO can lock to either WCO or USB, but not both.
 330:Generated_Source\PSoC4/CyLib.c ****     *
 331:Generated_Source\PSoC4/CyLib.c ****     *******************************************************************************/
 332:Generated_Source\PSoC4/CyLib.c ****     void CySysClkImoEnableUsbLock(void)
 333:Generated_Source\PSoC4/CyLib.c ****     {
 334:Generated_Source\PSoC4/CyLib.c ****         #if(CY_IP_SRSSV2)
 335:Generated_Source\PSoC4/CyLib.c ****             uint32 i;
 336:Generated_Source\PSoC4/CyLib.c ****             
 337:Generated_Source\PSoC4/CyLib.c ****             /* Check for new trim algorithm */
 338:Generated_Source\PSoC4/CyLib.c ****             uint32 CySysClkUsbCuSortTrim = (CY_SFLASH_S1_TESTPGM_OLD_REV < (CY_SFLASH_S1_TESTPGM_RE
 339:Generated_Source\PSoC4/CyLib.c ****                                                                             CY_SFLASH_S1_TESTPGM_RE
 340:Generated_Source\PSoC4/CyLib.c **** 
 341:Generated_Source\PSoC4/CyLib.c ****             /* Get current IMO frequency based on the register value */
 342:Generated_Source\PSoC4/CyLib.c ****             uint32 freq = CY_SYS_CLK_IMO_MIN_FREQ_MHZ;
 343:Generated_Source\PSoC4/CyLib.c **** 
 344:Generated_Source\PSoC4/CyLib.c ****             for(i = 0u; i < CY_SYS_CLK_IMO_FREQ_TABLE_SIZE; i++)
 345:Generated_Source\PSoC4/CyLib.c ****             {
 346:Generated_Source\PSoC4/CyLib.c ****                 if ((uint8) (CY_SYS_CLK_IMO_TRIM2_REG & CY_SYS_CLK_IMO_FREQ_BITS_MASK) == cyImoFreq
 347:Generated_Source\PSoC4/CyLib.c ****                 {
 348:Generated_Source\PSoC4/CyLib.c ****                     freq = i + CY_SYS_CLK_IMO_FREQ_TABLE_OFFSET;
 349:Generated_Source\PSoC4/CyLib.c ****                     break;
 350:Generated_Source\PSoC4/CyLib.c ****                 }
 351:Generated_Source\PSoC4/CyLib.c ****             }
 352:Generated_Source\PSoC4/CyLib.c ****         #endif  /* (CY_IP_SRSSV2) */
 353:Generated_Source\PSoC4/CyLib.c ****         
 354:Generated_Source\PSoC4/CyLib.c ****         /* Set oscillator interface control port to USB */
ARM GAS  C:\Users\Banni\AppData\Local\Temp\ccvFPZ8V.s 			page 10


 355:Generated_Source\PSoC4/CyLib.c ****         #if (CY_IP_IMO_TRIMMABLE_BY_WCO && CY_IP_IMO_TRIMMABLE_BY_USB)
 356:Generated_Source\PSoC4/CyLib.c ****             CY_SYS_CLK_OSCINTF_CTL_REG = (CY_SYS_CLK_OSCINTF_CTL_REG & (uint32) ~CY_SYS_CLK_OSCINTF
 357:Generated_Source\PSoC4/CyLib.c ****                                           CY_SYS_CLK_OSCINTF_CTL_PORT_SEL_USB;
 358:Generated_Source\PSoC4/CyLib.c ****         #endif /* (CY_IP_IMO_TRIMMABLE_BY_WCO && CY_IP_IMO_TRIMMABLE_BY_USB) */
 359:Generated_Source\PSoC4/CyLib.c **** 
 360:Generated_Source\PSoC4/CyLib.c ****         #if(CY_IP_SRSSV2)
 361:Generated_Source\PSoC4/CyLib.c ****            
 362:Generated_Source\PSoC4/CyLib.c ****             /* Save CY_SYS_CLK_IMO_TRIM4_REG and set IMO gain for USB lock */
 363:Generated_Source\PSoC4/CyLib.c ****             CySysClkImoTrim4 = CY_SYS_CLK_IMO_TRIM4_REG;
 364:Generated_Source\PSoC4/CyLib.c ****             
 365:Generated_Source\PSoC4/CyLib.c ****             if(0u != CySysClkUsbCuSortTrim)
 366:Generated_Source\PSoC4/CyLib.c ****             {
 367:Generated_Source\PSoC4/CyLib.c ****                 CySysClkImoTrim5 = CY_PWR_BG_TRIM5_REG;
 368:Generated_Source\PSoC4/CyLib.c ****                 
 369:Generated_Source\PSoC4/CyLib.c ****                 CY_SYS_CLK_IMO_TRIM4_REG = (CySysClkImoTrim4 & (uint32) ~CY_SYS_CLK_IMO_TRIM4_GAIN_
 370:Generated_Source\PSoC4/CyLib.c ****                                             CY_SFLASH_USBMODE_IMO_GAIN_TRIM_REG;
 371:Generated_Source\PSoC4/CyLib.c ****                 CY_PWR_BG_TRIM5_REG = CY_SFLASH_USBMODE_IMO_TEMPCO_REG;
 372:Generated_Source\PSoC4/CyLib.c ****                 
 373:Generated_Source\PSoC4/CyLib.c ****             }
 374:Generated_Source\PSoC4/CyLib.c ****             else
 375:Generated_Source\PSoC4/CyLib.c ****             {
 376:Generated_Source\PSoC4/CyLib.c ****                 CY_SYS_CLK_IMO_TRIM4_REG = (CySysClkImoTrim4 & (uint32) ~CY_SYS_CLK_IMO_TRIM4_GAIN_
 377:Generated_Source\PSoC4/CyLib.c ****                                             CY_SYS_CLK_IMO_TRIM4_USB_GAIN;
 378:Generated_Source\PSoC4/CyLib.c **** 
 379:Generated_Source\PSoC4/CyLib.c ****             }
 380:Generated_Source\PSoC4/CyLib.c **** 
 381:Generated_Source\PSoC4/CyLib.c ****             if (48u == freq)
 382:Generated_Source\PSoC4/CyLib.c ****             {
 383:Generated_Source\PSoC4/CyLib.c ****                 CY_SYS_CLK_IMO_TRIM1_REG = (0u != CySysClkUsbCuSortTrim) ? 
 384:Generated_Source\PSoC4/CyLib.c ****                                            (uint32)CY_SFLASH_CU_IMO_TRIM_USBMODE_48_REG :
 385:Generated_Source\PSoC4/CyLib.c ****                                            (uint32)CY_SFLASH_IMO_TRIM_USBMODE_48_REG;
 386:Generated_Source\PSoC4/CyLib.c ****             }
 387:Generated_Source\PSoC4/CyLib.c ****             else if (24u == freq)
 388:Generated_Source\PSoC4/CyLib.c ****             {
 389:Generated_Source\PSoC4/CyLib.c ****                 CY_SYS_CLK_IMO_TRIM1_REG = (0u != CySysClkUsbCuSortTrim) ? 
 390:Generated_Source\PSoC4/CyLib.c ****                                            (uint32)CY_SFLASH_CU_IMO_TRIM_USBMODE_24_REG :
 391:Generated_Source\PSoC4/CyLib.c ****                                            (uint32)CY_SFLASH_IMO_TRIM_USBMODE_24_REG;
 392:Generated_Source\PSoC4/CyLib.c ****             }
 393:Generated_Source\PSoC4/CyLib.c ****             else
 394:Generated_Source\PSoC4/CyLib.c ****             {
 395:Generated_Source\PSoC4/CyLib.c ****                 /* Do nothing */
 396:Generated_Source\PSoC4/CyLib.c ****             }
 397:Generated_Source\PSoC4/CyLib.c ****             
 398:Generated_Source\PSoC4/CyLib.c ****             
 399:Generated_Source\PSoC4/CyLib.c ****         #endif  /* (CY_IP_SRSSV2) */
 400:Generated_Source\PSoC4/CyLib.c **** 
 401:Generated_Source\PSoC4/CyLib.c ****         CY_SYS_CLK_USBDEVv2_CR1_REG |= CY_SYS_CLK_USBDEVv2_CR1_ENABLE_LOCK;
 402:Generated_Source\PSoC4/CyLib.c ****     }
 403:Generated_Source\PSoC4/CyLib.c **** 
 404:Generated_Source\PSoC4/CyLib.c **** 
 405:Generated_Source\PSoC4/CyLib.c ****     /*******************************************************************************
 406:Generated_Source\PSoC4/CyLib.c ****     * Function Name: CySysClkImoDisableUsbLock
 407:Generated_Source\PSoC4/CyLib.c ****     ****************************************************************************//**
 408:Generated_Source\PSoC4/CyLib.c ****     *
 409:Generated_Source\PSoC4/CyLib.c ****     * Disables the IMO to USB lock feature.
 410:Generated_Source\PSoC4/CyLib.c ****     *
 411:Generated_Source\PSoC4/CyLib.c ****     * This function is called from CySysClkImoStop() function if USB lock selected
ARM GAS  C:\Users\Banni\AppData\Local\Temp\ccvFPZ8V.s 			page 11


 412:Generated_Source\PSoC4/CyLib.c ****     * in the Design Wide Resources tab.
 413:Generated_Source\PSoC4/CyLib.c ****     *
 414:Generated_Source\PSoC4/CyLib.c ****     * This is applicable for PSoC 4200L family of devices only. For PSoC 4200L
 415:Generated_Source\PSoC4/CyLib.c ****     * devices, the IMO can lock to either WCO or USB, but not both.
 416:Generated_Source\PSoC4/CyLib.c ****     *
 417:Generated_Source\PSoC4/CyLib.c ****     *******************************************************************************/
 418:Generated_Source\PSoC4/CyLib.c ****     void CySysClkImoDisableUsbLock(void)
 419:Generated_Source\PSoC4/CyLib.c ****     {
 420:Generated_Source\PSoC4/CyLib.c ****         #if(CY_IP_SRSSV2)
 421:Generated_Source\PSoC4/CyLib.c ****             uint32 i;
 422:Generated_Source\PSoC4/CyLib.c ****             
 423:Generated_Source\PSoC4/CyLib.c ****             /* Check for new trim algorithm */
 424:Generated_Source\PSoC4/CyLib.c ****             uint32 CySysClkUsbCuSortTrim = (CY_SFLASH_S1_TESTPGM_OLD_REV < (CY_SFLASH_S1_TESTPGM_RE
 425:Generated_Source\PSoC4/CyLib.c ****                                                                             CY_SFLASH_S1_TESTPGM_RE
 426:Generated_Source\PSoC4/CyLib.c **** 
 427:Generated_Source\PSoC4/CyLib.c ****             /* Get current IMO frequency based on the register value */
 428:Generated_Source\PSoC4/CyLib.c ****             uint32 freq = CY_SYS_CLK_IMO_MIN_FREQ_MHZ;;
 429:Generated_Source\PSoC4/CyLib.c **** 
 430:Generated_Source\PSoC4/CyLib.c ****             for(i = 0u; i < CY_SYS_CLK_IMO_FREQ_TABLE_SIZE; i++)
 431:Generated_Source\PSoC4/CyLib.c ****             {
 432:Generated_Source\PSoC4/CyLib.c ****                 if ((uint8) (CY_SYS_CLK_IMO_TRIM2_REG & CY_SYS_CLK_IMO_FREQ_BITS_MASK) == cyImoFreq
 433:Generated_Source\PSoC4/CyLib.c ****                 {
 434:Generated_Source\PSoC4/CyLib.c ****                     freq = i + CY_SYS_CLK_IMO_FREQ_TABLE_OFFSET;
 435:Generated_Source\PSoC4/CyLib.c ****                     break;
 436:Generated_Source\PSoC4/CyLib.c ****                 }
 437:Generated_Source\PSoC4/CyLib.c ****             }           
 438:Generated_Source\PSoC4/CyLib.c ****         #endif  /* (CY_IP_SRSSV2) */
 439:Generated_Source\PSoC4/CyLib.c ****         
 440:Generated_Source\PSoC4/CyLib.c ****         CY_SYS_CLK_USBDEVv2_CR1_REG &= (uint32) ~CY_SYS_CLK_USBDEVv2_CR1_ENABLE_LOCK;
 441:Generated_Source\PSoC4/CyLib.c **** 
 442:Generated_Source\PSoC4/CyLib.c ****         #if(CY_IP_SRSSV2)
 443:Generated_Source\PSoC4/CyLib.c ****             /* Restore CY_SYS_CLK_IMO_TRIM4_REG */
 444:Generated_Source\PSoC4/CyLib.c ****             CY_SYS_CLK_IMO_TRIM4_REG = ((CY_SYS_CLK_IMO_TRIM4_REG & (uint32) ~CY_SYS_CLK_IMO_TRIM4_
 445:Generated_Source\PSoC4/CyLib.c ****                                         (CySysClkImoTrim4 & CY_SYS_CLK_IMO_TRIM4_GAIN_MASK));
 446:Generated_Source\PSoC4/CyLib.c **** 
 447:Generated_Source\PSoC4/CyLib.c ****             if(0u != CySysClkUsbCuSortTrim)
 448:Generated_Source\PSoC4/CyLib.c ****             {
 449:Generated_Source\PSoC4/CyLib.c ****                 CY_PWR_BG_TRIM5_REG = CySysClkImoTrim5;
 450:Generated_Source\PSoC4/CyLib.c ****             }
 451:Generated_Source\PSoC4/CyLib.c ****             else
 452:Generated_Source\PSoC4/CyLib.c ****             {
 453:Generated_Source\PSoC4/CyLib.c ****                 /* Do nothing */
 454:Generated_Source\PSoC4/CyLib.c ****             }
 455:Generated_Source\PSoC4/CyLib.c ****             
 456:Generated_Source\PSoC4/CyLib.c ****             CY_SYS_CLK_IMO_TRIM1_REG = CY_SFLASH_IMO_TRIM_REG(freq - CY_SYS_CLK_IMO_FREQ_TABLE_OFFS
 457:Generated_Source\PSoC4/CyLib.c ****             
 458:Generated_Source\PSoC4/CyLib.c ****         #endif  /* (CY_IP_SRSSV2) */
 459:Generated_Source\PSoC4/CyLib.c ****     }
 460:Generated_Source\PSoC4/CyLib.c **** 
 461:Generated_Source\PSoC4/CyLib.c **** 
 462:Generated_Source\PSoC4/CyLib.c ****     /*******************************************************************************
 463:Generated_Source\PSoC4/CyLib.c ****     * Function Name: CySysClkImoGetUsbLock
 464:Generated_Source\PSoC4/CyLib.c ****     ****************************************************************************//**
 465:Generated_Source\PSoC4/CyLib.c ****     *
 466:Generated_Source\PSoC4/CyLib.c ****     * Reports the IMO to USB lock enable state.
 467:Generated_Source\PSoC4/CyLib.c ****     *
 468:Generated_Source\PSoC4/CyLib.c ****     * This is applicable for PSoC 4200L family of devices only. For PSoC 4200L
ARM GAS  C:\Users\Banni\AppData\Local\Temp\ccvFPZ8V.s 			page 12


 469:Generated_Source\PSoC4/CyLib.c ****     * devices, the IMO can lock to either WCO or USB, but not both.
 470:Generated_Source\PSoC4/CyLib.c ****     *
 471:Generated_Source\PSoC4/CyLib.c ****     * \return 1 if IMO to USB lock is enabled.
 472:Generated_Source\PSoC4/CyLib.c ****     * \return 0 if IMO to USB lock is disabled.
 473:Generated_Source\PSoC4/CyLib.c ****     *
 474:Generated_Source\PSoC4/CyLib.c ****     *******************************************************************************/
 475:Generated_Source\PSoC4/CyLib.c ****     uint32 CySysClkImoGetUsbLock(void)
 476:Generated_Source\PSoC4/CyLib.c ****     {
 477:Generated_Source\PSoC4/CyLib.c ****         return ((0u != (CY_SYS_CLK_USBDEVv2_CR1_REG & CY_SYS_CLK_USBDEVv2_CR1_ENABLE_LOCK)) ?
 478:Generated_Source\PSoC4/CyLib.c ****                 (uint32) 1u :
 479:Generated_Source\PSoC4/CyLib.c ****                 (uint32) 0u);
 480:Generated_Source\PSoC4/CyLib.c ****     }
 481:Generated_Source\PSoC4/CyLib.c **** #endif  /* (CY_IP_IMO_TRIMMABLE_BY_USB) */
 482:Generated_Source\PSoC4/CyLib.c **** 
 483:Generated_Source\PSoC4/CyLib.c **** 
 484:Generated_Source\PSoC4/CyLib.c **** 
 485:Generated_Source\PSoC4/CyLib.c **** /*******************************************************************************
 486:Generated_Source\PSoC4/CyLib.c **** * Function Name: CySysClkWriteHfclkDirect
 487:Generated_Source\PSoC4/CyLib.c **** ****************************************************************************//**
 488:Generated_Source\PSoC4/CyLib.c **** *
 489:Generated_Source\PSoC4/CyLib.c **** * Selects the direct source for the HFCLK.
 490:Generated_Source\PSoC4/CyLib.c **** *
 491:Generated_Source\PSoC4/CyLib.c **** * The new source must be running and stable before calling this function.
 492:Generated_Source\PSoC4/CyLib.c **** *
 493:Generated_Source\PSoC4/CyLib.c **** * PSoC 4000:
 494:Generated_Source\PSoC4/CyLib.c **** * The SYSCLK has a maximum speed of 16 MHz, so HFCLK and SYSCLK dividers should
 495:Generated_Source\PSoC4/CyLib.c **** * be selected in a way to not to exceed 16 MHz for the System clock.
 496:Generated_Source\PSoC4/CyLib.c **** *
 497:Generated_Source\PSoC4/CyLib.c **** * If the SYSCLK clock frequency increases during device operation, call
 498:Generated_Source\PSoC4/CyLib.c **** * CySysFlashSetWaitCycles() with the appropriate parameter to adjust the number
 499:Generated_Source\PSoC4/CyLib.c **** * of clock cycles the cache will wait before sampling data comes back from
 500:Generated_Source\PSoC4/CyLib.c **** * Flash. If the SYSCLK clock frequency decreases, you can call
 501:Generated_Source\PSoC4/CyLib.c **** * CySysFlashSetWaitCycles() to improve the CPU performance. See
 502:Generated_Source\PSoC4/CyLib.c **** * CySysFlashSetWaitCycles() description for more information.
 503:Generated_Source\PSoC4/CyLib.c **** *
 504:Generated_Source\PSoC4/CyLib.c **** * Do not select PLL as the source for HFCLK if PLL output frequency exceeds
 505:Generated_Source\PSoC4/CyLib.c **** * maximum permissible value for HFCLK.
 506:Generated_Source\PSoC4/CyLib.c **** *
 507:Generated_Source\PSoC4/CyLib.c **** * \param clkSelect One of the available HFCLK direct sources.
 508:Generated_Source\PSoC4/CyLib.c **** * CY_SYS_CLK_HFCLK_IMO     IMO.
 509:Generated_Source\PSoC4/CyLib.c **** * CY_SYS_CLK_HFCLK_EXTCLK  External clock pin.
 510:Generated_Source\PSoC4/CyLib.c **** * CY_SYS_CLK_HFCLK_ECO     External crystal oscillator. Applicable for
 511:Generated_Source\PSoC4/CyLib.c **** *                          PSoC 4100 BLE / PSoC 4200 BLE / PSoC 4200L /
 512:Generated_Source\PSoC4/CyLib.c **** *                          4100S with ECO.
 513:Generated_Source\PSoC4/CyLib.c **** * CY_SYS_CLK_HFCLK_PLL0    PLL#0. Applicable for PSoC 4200L /
 514:Generated_Source\PSoC4/CyLib.c **** *                          4100S with PLL.
 515:Generated_Source\PSoC4/CyLib.c **** * CY_SYS_CLK_HFCLK_PLL1    PLL#1. Applicable for PSoC 4200L.
 516:Generated_Source\PSoC4/CyLib.c **** *
 517:Generated_Source\PSoC4/CyLib.c **** *******************************************************************************/
 518:Generated_Source\PSoC4/CyLib.c **** void CySysClkWriteHfclkDirect(uint32 clkSelect)
 519:Generated_Source\PSoC4/CyLib.c **** {
 156              		.loc 1 519 0
 157              		.cfi_startproc
 158              		@ args = 0, pretend = 0, frame = 0
 159              		@ frame_needed = 0, uses_anonymous_args = 0
 160              	.LVL1:
 161 0000 70B5     		push	{r4, r5, r6, lr}
ARM GAS  C:\Users\Banni\AppData\Local\Temp\ccvFPZ8V.s 			page 13


 162              		.cfi_def_cfa_offset 16
 163              		.cfi_offset 4, -16
 164              		.cfi_offset 5, -12
 165              		.cfi_offset 6, -8
 166              		.cfi_offset 14, -4
 167 0002 0400     		movs	r4, r0
 168              	.LVL2:
 520:Generated_Source\PSoC4/CyLib.c ****     uint8  interruptState;
 521:Generated_Source\PSoC4/CyLib.c ****     uint32 tmpReg;
 522:Generated_Source\PSoC4/CyLib.c ****     
 523:Generated_Source\PSoC4/CyLib.c ****     #if (CY_IP_SRSSLT && CY_IP_PLL)
 524:Generated_Source\PSoC4/CyLib.c ****         uint8 i = 0u;
 525:Generated_Source\PSoC4/CyLib.c ****     #endif /* (CY_IP_SRSSLT && CY_IP_PLL) */
 526:Generated_Source\PSoC4/CyLib.c **** 
 527:Generated_Source\PSoC4/CyLib.c ****     interruptState = CyEnterCriticalSection();
 169              		.loc 1 527 0
 170 0004 FFF7FEFF 		bl	CyEnterCriticalSection
 171              	.LVL3:
 528:Generated_Source\PSoC4/CyLib.c **** 
 529:Generated_Source\PSoC4/CyLib.c **** #if (CY_IP_SRSSLT && CY_IP_PLL)
 530:Generated_Source\PSoC4/CyLib.c ****     if ((CY_SYS_CLK_HFCLK_PLL0 == clkSelect) || (CY_SYS_CLK_HFCLK_ECO == clkSelect))
 172              		.loc 1 530 0
 173 0008 062C     		cmp	r4, #6
 174 000a 01D0     		beq	.L15
 175              		.loc 1 530 0 is_stmt 0 discriminator 1
 176 000c 022C     		cmp	r4, #2
 177 000e 25D1     		bne	.L16
 178              	.L15:
 531:Generated_Source\PSoC4/CyLib.c ****     {
 532:Generated_Source\PSoC4/CyLib.c ****         tmpReg = CY_SYS_CLK_SELECT_REG & ~CY_SYS_CLK_SELECT_DIRECT_SEL_MASK;
 179              		.loc 1 532 0 is_stmt 1
 180 0010 174A     		ldr	r2, .L19
 181 0012 1368     		ldr	r3, [r2]
 182 0014 0321     		movs	r1, #3
 183 0016 8B43     		bics	r3, r1
 184              	.LVL4:
 533:Generated_Source\PSoC4/CyLib.c ****         tmpReg |= CY_SYS_CLK_HFCLK_IMO;
 534:Generated_Source\PSoC4/CyLib.c ****         CY_SYS_CLK_SELECT_REG = tmpReg;        
 185              		.loc 1 534 0
 186 0018 1360     		str	r3, [r2]
 535:Generated_Source\PSoC4/CyLib.c ****         
 536:Generated_Source\PSoC4/CyLib.c ****         /* SRSSLT block does not have registers to select PLL. It is part of EXCO */ 
 537:Generated_Source\PSoC4/CyLib.c ****         tmpReg = CY_SYS_ECO_CLK_SELECT_REG & ~CY_SYS_ECO_CLK_SELECT_ECO_PLL_MASK;
 187              		.loc 1 537 0
 188 001a 164D     		ldr	r5, .L19+4
 189 001c 2968     		ldr	r1, [r5]
 190 001e 0123     		movs	r3, #1
 191              	.LVL5:
 192 0020 9943     		bics	r1, r3
 193              	.LVL6:
 538:Generated_Source\PSoC4/CyLib.c ****         tmpReg |= ((clkSelect & CY_SYS_CLK_SELECT_HFCLK_SEL_PLL_MASK) >> CY_SYS_CLK_SELECT_HFCLK_PL
 194              		.loc 1 538 0
 195 0022 A208     		lsrs	r2, r4, #2
 196 0024 1340     		ands	r3, r2
 197 0026 0B43     		orrs	r3, r1
 198              	.LVL7:
 539:Generated_Source\PSoC4/CyLib.c ****         CY_SYS_ECO_CLK_SELECT_REG = tmpReg;
ARM GAS  C:\Users\Banni\AppData\Local\Temp\ccvFPZ8V.s 			page 14


 199              		.loc 1 539 0
 200 0028 2B60     		str	r3, [r5]
 540:Generated_Source\PSoC4/CyLib.c ****         
 541:Generated_Source\PSoC4/CyLib.c ****         /* Generate clock sequence to change clock source in CY_SYS_ECO_CLK_SELECT_REG */
 542:Generated_Source\PSoC4/CyLib.c ****         CY_SYS_EXCO_PGM_CLK_REG |= CY_SYS_EXCO_PGM_CLK_ENABLE_MASK;
 201              		.loc 1 542 0
 202 002a 134A     		ldr	r2, .L19+8
 203 002c 1368     		ldr	r3, [r2]
 204              	.LVL8:
 205 002e 8021     		movs	r1, #128
 206 0030 0906     		lsls	r1, r1, #24
 207 0032 0B43     		orrs	r3, r1
 208 0034 1360     		str	r3, [r2]
 209              	.LVL9:
 543:Generated_Source\PSoC4/CyLib.c ****         
 544:Generated_Source\PSoC4/CyLib.c ****         for(i = 0u; i < CY_SYS_EXCO_PGM_CLK_SEQ_GENERATOR; i++)
 210              		.loc 1 544 0
 211 0036 0023     		movs	r3, #0
 212 0038 09E0     		b	.L17
 213              	.LVL10:
 214              	.L18:
 545:Generated_Source\PSoC4/CyLib.c ****         {
 546:Generated_Source\PSoC4/CyLib.c ****             CY_SYS_EXCO_PGM_CLK_REG |= CY_SYS_EXCO_PGM_CLK_CLK_ECO_MASK;
 215              		.loc 1 546 0 discriminator 3
 216 003a 0F4A     		ldr	r2, .L19+8
 217 003c 1168     		ldr	r1, [r2]
 218 003e 0225     		movs	r5, #2
 219 0040 2943     		orrs	r1, r5
 220 0042 1160     		str	r1, [r2]
 547:Generated_Source\PSoC4/CyLib.c ****             CY_SYS_EXCO_PGM_CLK_REG &= ~CY_SYS_EXCO_PGM_CLK_CLK_ECO_MASK;
 221              		.loc 1 547 0 discriminator 3
 222 0044 1168     		ldr	r1, [r2]
 223 0046 A943     		bics	r1, r5
 224 0048 1160     		str	r1, [r2]
 544:Generated_Source\PSoC4/CyLib.c ****         {
 225              		.loc 1 544 0 discriminator 3
 226 004a 0133     		adds	r3, r3, #1
 227              	.LVL11:
 228 004c DBB2     		uxtb	r3, r3
 229              	.LVL12:
 230              	.L17:
 544:Generated_Source\PSoC4/CyLib.c ****         {
 231              		.loc 1 544 0 is_stmt 0 discriminator 1
 232 004e 042B     		cmp	r3, #4
 233 0050 F3D9     		bls	.L18
 548:Generated_Source\PSoC4/CyLib.c ****         }
 549:Generated_Source\PSoC4/CyLib.c ****         
 550:Generated_Source\PSoC4/CyLib.c ****         CY_SYS_EXCO_PGM_CLK_REG &= ~CY_SYS_EXCO_PGM_CLK_ENABLE_MASK;    
 234              		.loc 1 550 0 is_stmt 1
 235 0052 094A     		ldr	r2, .L19+8
 236 0054 1368     		ldr	r3, [r2]
 237              	.LVL13:
 238 0056 5B00     		lsls	r3, r3, #1
 239 0058 5B08     		lsrs	r3, r3, #1
 240 005a 1360     		str	r3, [r2]
 241              	.L16:
 551:Generated_Source\PSoC4/CyLib.c ****     }
ARM GAS  C:\Users\Banni\AppData\Local\Temp\ccvFPZ8V.s 			page 15


 552:Generated_Source\PSoC4/CyLib.c ****     else
 553:Generated_Source\PSoC4/CyLib.c ****     {
 554:Generated_Source\PSoC4/CyLib.c ****         /* Do nothing */
 555:Generated_Source\PSoC4/CyLib.c ****     }
 556:Generated_Source\PSoC4/CyLib.c **** #endif /* (CY_IP_SRSSLT && CY_IP_PLL) */
 557:Generated_Source\PSoC4/CyLib.c **** 
 558:Generated_Source\PSoC4/CyLib.c ****     tmpReg = CY_SYS_CLK_SELECT_REG & ~(CY_SYS_CLK_SELECT_DIRECT_SEL_MASK |
 242              		.loc 1 558 0
 243 005c 044A     		ldr	r2, .L19
 244 005e 1368     		ldr	r3, [r2]
 245 0060 0321     		movs	r1, #3
 246 0062 8B43     		bics	r3, r1
 247              	.LVL14:
 559:Generated_Source\PSoC4/CyLib.c ****                                        CY_SYS_CLK_SELECT_HFCLK_SEL_MASK);
 560:Generated_Source\PSoC4/CyLib.c **** 
 561:Generated_Source\PSoC4/CyLib.c **** #if (CY_IP_SRSSV2 && CY_IP_PLL)
 562:Generated_Source\PSoC4/CyLib.c ****     if ((CY_SYS_CLK_HFCLK_PLL0 == clkSelect) || (CY_SYS_CLK_HFCLK_PLL1 == clkSelect))
 563:Generated_Source\PSoC4/CyLib.c ****     {
 564:Generated_Source\PSoC4/CyLib.c ****         tmpReg |= (clkSelect & CY_SYS_CLK_SELECT_HFCLK_SEL_MASK);
 565:Generated_Source\PSoC4/CyLib.c ****     }
 566:Generated_Source\PSoC4/CyLib.c ****     else
 567:Generated_Source\PSoC4/CyLib.c **** #endif /* (CY_IP_SRSSV2 && CY_IP_PLL) */
 568:Generated_Source\PSoC4/CyLib.c ****     {
 569:Generated_Source\PSoC4/CyLib.c ****         tmpReg |= (clkSelect & CY_SYS_CLK_SELECT_DIRECT_SEL_MASK);
 248              		.loc 1 569 0
 249 0064 0C40     		ands	r4, r1
 250              	.LVL15:
 251 0066 1C43     		orrs	r4, r3
 252              	.LVL16:
 570:Generated_Source\PSoC4/CyLib.c ****     }   
 571:Generated_Source\PSoC4/CyLib.c ****     
 572:Generated_Source\PSoC4/CyLib.c ****     CY_SYS_CLK_SELECT_REG = tmpReg;
 253              		.loc 1 572 0
 254 0068 1460     		str	r4, [r2]
 573:Generated_Source\PSoC4/CyLib.c ****     
 574:Generated_Source\PSoC4/CyLib.c ****     CyExitCriticalSection(interruptState);
 255              		.loc 1 574 0
 256 006a FFF7FEFF 		bl	CyExitCriticalSection
 257              	.LVL17:
 575:Generated_Source\PSoC4/CyLib.c **** }
 258              		.loc 1 575 0
 259              		@ sp needed
 260              	.LVL18:
 261 006e 70BD     		pop	{r4, r5, r6, pc}
 262              	.L20:
 263              		.align	2
 264              	.L19:
 265 0070 28000340 		.word	1073938472
 266 0074 00002F40 		.word	1076822016
 267 0078 20002F40 		.word	1076822048
 268              		.cfi_endproc
 269              	.LFE6:
 270              		.size	CySysClkWriteHfclkDirect, .-CySysClkWriteHfclkDirect
 271              		.section	.text.CySysEnablePumpClock,"ax",%progbits
 272              		.align	2
 273              		.global	CySysEnablePumpClock
 274              		.code	16
ARM GAS  C:\Users\Banni\AppData\Local\Temp\ccvFPZ8V.s 			page 16


 275              		.thumb_func
 276              		.type	CySysEnablePumpClock, %function
 277              	CySysEnablePumpClock:
 278              	.LFB7:
 576:Generated_Source\PSoC4/CyLib.c **** 
 577:Generated_Source\PSoC4/CyLib.c **** 
 578:Generated_Source\PSoC4/CyLib.c **** /*******************************************************************************
 579:Generated_Source\PSoC4/CyLib.c **** * Function Name: CySysEnablePumpClock
 580:Generated_Source\PSoC4/CyLib.c **** ****************************************************************************//**
 581:Generated_Source\PSoC4/CyLib.c **** *
 582:Generated_Source\PSoC4/CyLib.c **** * Enables / disables the pump clock.
 583:Generated_Source\PSoC4/CyLib.c **** *
 584:Generated_Source\PSoC4/CyLib.c **** * \param enable  
 585:Generated_Source\PSoC4/CyLib.c **** * CY_SYS_CLK_PUMP_DISABLE - Disables the pump clock
 586:Generated_Source\PSoC4/CyLib.c **** * CY_SYS_CLK_PUMP_ENABLE - Enables and restores the operating source of 
 587:Generated_Source\PSoC4/CyLib.c **** * the pump clock.
 588:Generated_Source\PSoC4/CyLib.c **** *
 589:Generated_Source\PSoC4/CyLib.c **** * \sideeffect
 590:Generated_Source\PSoC4/CyLib.c **** *  Enabling/disabling the pump clock does not guarantee glitch free operation 
 591:Generated_Source\PSoC4/CyLib.c **** *  when changing the IMO parameters or clock divider settings.
 592:Generated_Source\PSoC4/CyLib.c **** *
 593:Generated_Source\PSoC4/CyLib.c **** *******************************************************************************/
 594:Generated_Source\PSoC4/CyLib.c **** void CySysEnablePumpClock(uint32 enable)
 595:Generated_Source\PSoC4/CyLib.c **** {
 279              		.loc 1 595 0
 280              		.cfi_startproc
 281              		@ args = 0, pretend = 0, frame = 0
 282              		@ frame_needed = 0, uses_anonymous_args = 0
 283              		@ link register save eliminated.
 284              	.LVL19:
 596:Generated_Source\PSoC4/CyLib.c ****     #if(CY_IP_SRSSV2)
 597:Generated_Source\PSoC4/CyLib.c ****         if (0u != (CY_SYS_CLK_PUMP_ENABLE & enable))
 598:Generated_Source\PSoC4/CyLib.c ****         {
 599:Generated_Source\PSoC4/CyLib.c ****             CY_SYS_CLK_IMO_CONFIG_REG |= (CySysClkPumpConfig << CY_SYS_CLK_IMO_CONFIG_PUMP_SEL_SHIF
 600:Generated_Source\PSoC4/CyLib.c ****         }
 601:Generated_Source\PSoC4/CyLib.c ****         else
 602:Generated_Source\PSoC4/CyLib.c ****         {
 603:Generated_Source\PSoC4/CyLib.c ****             CySysClkPumpConfig = (CY_SYS_CLK_IMO_CONFIG_REG >> CY_SYS_CLK_IMO_CONFIG_PUMP_SEL_SHIFT
 604:Generated_Source\PSoC4/CyLib.c ****                                   CY_SYS_CLK_IMO_CONFIG_PUMP_SEL_MASK;
 605:Generated_Source\PSoC4/CyLib.c ****             CY_SYS_CLK_IMO_CONFIG_REG &= ~(CY_SYS_CLK_IMO_CONFIG_PUMP_SEL_MASK << CY_SYS_CLK_IMO_CO
 606:Generated_Source\PSoC4/CyLib.c ****         }
 607:Generated_Source\PSoC4/CyLib.c ****     #else /* CY_IP_SRSSLT */
 608:Generated_Source\PSoC4/CyLib.c ****         if (0u != (CY_SYS_CLK_PUMP_ENABLE & enable))
 285              		.loc 1 608 0
 286 0000 C307     		lsls	r3, r0, #31
 287 0002 07D5     		bpl	.L22
 609:Generated_Source\PSoC4/CyLib.c ****         {
 610:Generated_Source\PSoC4/CyLib.c ****             CY_SYS_CLK_SELECT_REG |= (CySysClkPumpConfig << CY_SYS_CLK_SELECT_PUMP_SEL_SHIFT);
 288              		.loc 1 610 0
 289 0004 094A     		ldr	r2, .L24
 290 0006 1168     		ldr	r1, [r2]
 291 0008 094B     		ldr	r3, .L24+4
 292 000a 1B68     		ldr	r3, [r3]
 293 000c 1B01     		lsls	r3, r3, #4
 294 000e 0B43     		orrs	r3, r1
 295 0010 1360     		str	r3, [r2]
 296 0012 0AE0     		b	.L21
ARM GAS  C:\Users\Banni\AppData\Local\Temp\ccvFPZ8V.s 			page 17


 297              	.L22:
 611:Generated_Source\PSoC4/CyLib.c ****         }
 612:Generated_Source\PSoC4/CyLib.c ****         else
 613:Generated_Source\PSoC4/CyLib.c ****         {
 614:Generated_Source\PSoC4/CyLib.c ****             CySysClkPumpConfig = (CY_SYS_CLK_SELECT_REG >> CY_SYS_CLK_SELECT_PUMP_SEL_SHIFT) & 
 298              		.loc 1 614 0
 299 0014 054A     		ldr	r2, .L24
 300 0016 1368     		ldr	r3, [r2]
 301 0018 1B09     		lsrs	r3, r3, #4
 302 001a 0321     		movs	r1, #3
 303 001c 0B40     		ands	r3, r1
 304 001e 0449     		ldr	r1, .L24+4
 305 0020 0B60     		str	r3, [r1]
 615:Generated_Source\PSoC4/CyLib.c ****                                   CY_SYS_CLK_SELECT_PUMP_SEL_MASK;
 616:Generated_Source\PSoC4/CyLib.c ****             CY_SYS_CLK_SELECT_REG &= ~(CY_SYS_CLK_SELECT_PUMP_SEL_MASK << CY_SYS_CLK_SELECT_PUMP_SE
 306              		.loc 1 616 0
 307 0022 1368     		ldr	r3, [r2]
 308 0024 3021     		movs	r1, #48
 309 0026 8B43     		bics	r3, r1
 310 0028 1360     		str	r3, [r2]
 311              	.L21:
 617:Generated_Source\PSoC4/CyLib.c ****         }
 618:Generated_Source\PSoC4/CyLib.c ****     #endif  /* (CY_IP_SRSSV2) */
 619:Generated_Source\PSoC4/CyLib.c **** }
 312              		.loc 1 619 0
 313              		@ sp needed
 314 002a 7047     		bx	lr
 315              	.L25:
 316              		.align	2
 317              	.L24:
 318 002c 28000340 		.word	1073938472
 319 0030 00000000 		.word	.LANCHOR0
 320              		.cfi_endproc
 321              	.LFE7:
 322              		.size	CySysEnablePumpClock, .-CySysEnablePumpClock
 323              		.section	.text.CySysClkGetSysclkSource,"ax",%progbits
 324              		.align	2
 325              		.global	CySysClkGetSysclkSource
 326              		.code	16
 327              		.thumb_func
 328              		.type	CySysClkGetSysclkSource, %function
 329              	CySysClkGetSysclkSource:
 330              	.LFB8:
 620:Generated_Source\PSoC4/CyLib.c **** 
 621:Generated_Source\PSoC4/CyLib.c **** 
 622:Generated_Source\PSoC4/CyLib.c **** /*******************************************************************************
 623:Generated_Source\PSoC4/CyLib.c **** * Function Name: CySysClkGetSysclkSource
 624:Generated_Source\PSoC4/CyLib.c **** ****************************************************************************//**
 625:Generated_Source\PSoC4/CyLib.c **** *
 626:Generated_Source\PSoC4/CyLib.c **** * Returns the source of the System clock.
 627:Generated_Source\PSoC4/CyLib.c **** *
 628:Generated_Source\PSoC4/CyLib.c **** * \return The same as \ref CySysClkWriteHfclkDirect() function parameters.
 629:Generated_Source\PSoC4/CyLib.c **** *
 630:Generated_Source\PSoC4/CyLib.c **** *******************************************************************************/
 631:Generated_Source\PSoC4/CyLib.c **** uint32 CySysClkGetSysclkSource(void)
 632:Generated_Source\PSoC4/CyLib.c **** {
 331              		.loc 1 632 0
ARM GAS  C:\Users\Banni\AppData\Local\Temp\ccvFPZ8V.s 			page 18


 332              		.cfi_startproc
 333              		@ args = 0, pretend = 0, frame = 0
 334              		@ frame_needed = 0, uses_anonymous_args = 0
 335 0000 10B5     		push	{r4, lr}
 336              		.cfi_def_cfa_offset 8
 337              		.cfi_offset 4, -8
 338              		.cfi_offset 14, -4
 633:Generated_Source\PSoC4/CyLib.c ****     uint8  interruptState;
 634:Generated_Source\PSoC4/CyLib.c ****     uint32 sysclkSource;
 635:Generated_Source\PSoC4/CyLib.c **** 
 636:Generated_Source\PSoC4/CyLib.c ****     interruptState = CyEnterCriticalSection();
 339              		.loc 1 636 0
 340 0002 FFF7FEFF 		bl	CyEnterCriticalSection
 341              	.LVL20:
 637:Generated_Source\PSoC4/CyLib.c **** 
 638:Generated_Source\PSoC4/CyLib.c **** #if (CY_IP_SRSSV2 && CY_IP_PLL)
 639:Generated_Source\PSoC4/CyLib.c ****     if ((CY_SYS_CLK_SELECT_REG & CY_SYS_CLK_SELECT_HFCLK_SEL_MASK) != 0u)
 640:Generated_Source\PSoC4/CyLib.c ****     {
 641:Generated_Source\PSoC4/CyLib.c ****         sysclkSource = (CY_SYS_CLK_SELECT_REG & CY_SYS_CLK_SELECT_HFCLK_SEL_MASK);
 642:Generated_Source\PSoC4/CyLib.c ****     }
 643:Generated_Source\PSoC4/CyLib.c ****     else
 644:Generated_Source\PSoC4/CyLib.c **** #endif /* (CY_IP_SRSSV2 && CY_IP_PLL) */
 645:Generated_Source\PSoC4/CyLib.c ****     {
 646:Generated_Source\PSoC4/CyLib.c ****         sysclkSource = (CY_SYS_CLK_SELECT_REG & CY_SYS_CLK_SELECT_DIRECT_SEL_MASK);
 342              		.loc 1 646 0
 343 0006 074B     		ldr	r3, .L27
 344 0008 1B68     		ldr	r3, [r3]
 345 000a 0324     		movs	r4, #3
 346 000c 2200     		movs	r2, r4
 347 000e 1A40     		ands	r2, r3
 348              	.LVL21:
 647:Generated_Source\PSoC4/CyLib.c **** 
 648:Generated_Source\PSoC4/CyLib.c ****     #if (CY_IP_SRSSLT && CY_IP_PLL)
 649:Generated_Source\PSoC4/CyLib.c ****         sysclkSource |= (((uint32)(CY_SYS_ECO_CLK_SELECT_REG & CY_SYS_ECO_CLK_SELECT_ECO_PLL_MASK))
 349              		.loc 1 649 0
 350 0010 054B     		ldr	r3, .L27+4
 351 0012 1B68     		ldr	r3, [r3]
 352 0014 9B00     		lsls	r3, r3, #2
 353 0016 0134     		adds	r4, r4, #1
 354 0018 1C40     		ands	r4, r3
 355 001a 1443     		orrs	r4, r2
 356              	.LVL22:
 650:Generated_Source\PSoC4/CyLib.c ****                          CY_SYS_CLK_SELECT_HFCLK_PLL_SHIFT);
 651:Generated_Source\PSoC4/CyLib.c ****     #endif /* (CY_IP_SRSSLT && CY_IP_PLL) */
 652:Generated_Source\PSoC4/CyLib.c ****         
 653:Generated_Source\PSoC4/CyLib.c ****     }
 654:Generated_Source\PSoC4/CyLib.c **** 
 655:Generated_Source\PSoC4/CyLib.c ****     CyExitCriticalSection(interruptState);
 357              		.loc 1 655 0
 358 001c FFF7FEFF 		bl	CyExitCriticalSection
 359              	.LVL23:
 656:Generated_Source\PSoC4/CyLib.c **** 
 657:Generated_Source\PSoC4/CyLib.c ****     return (sysclkSource);
 658:Generated_Source\PSoC4/CyLib.c **** }
 360              		.loc 1 658 0
 361 0020 2000     		movs	r0, r4
 362              		@ sp needed
ARM GAS  C:\Users\Banni\AppData\Local\Temp\ccvFPZ8V.s 			page 19


 363              	.LVL24:
 364 0022 10BD     		pop	{r4, pc}
 365              	.L28:
 366              		.align	2
 367              	.L27:
 368 0024 28000340 		.word	1073938472
 369 0028 00002F40 		.word	1076822016
 370              		.cfi_endproc
 371              	.LFE8:
 372              		.size	CySysClkGetSysclkSource, .-CySysClkGetSysclkSource
 373              		.section	.text.CySysClkWriteSysclkDiv,"ax",%progbits
 374              		.align	2
 375              		.global	CySysClkWriteSysclkDiv
 376              		.code	16
 377              		.thumb_func
 378              		.type	CySysClkWriteSysclkDiv, %function
 379              	CySysClkWriteSysclkDiv:
 380              	.LFB9:
 659:Generated_Source\PSoC4/CyLib.c **** 
 660:Generated_Source\PSoC4/CyLib.c **** 
 661:Generated_Source\PSoC4/CyLib.c **** /*******************************************************************************
 662:Generated_Source\PSoC4/CyLib.c **** * Function Name: CySysClkWriteSysclkDiv
 663:Generated_Source\PSoC4/CyLib.c **** ****************************************************************************//**
 664:Generated_Source\PSoC4/CyLib.c **** *
 665:Generated_Source\PSoC4/CyLib.c **** * Selects the prescaler divide amount for SYSCLK from HFCLK.
 666:Generated_Source\PSoC4/CyLib.c **** *
 667:Generated_Source\PSoC4/CyLib.c **** * PSoC 4000: The SYSCLK has the speed of 16 MHz, so HFCLK and SYSCLK dividers
 668:Generated_Source\PSoC4/CyLib.c **** * should be selected in a way, not to exceed 16 MHz for SYSCLK.
 669:Generated_Source\PSoC4/CyLib.c **** *
 670:Generated_Source\PSoC4/CyLib.c **** * PSoC 4100 \ PSoC 4100 BLE \ PSoC 4100M: The SYSCLK has the speed of 24 MHz,
 671:Generated_Source\PSoC4/CyLib.c **** * so HFCLK and SYSCLK dividers should be selected in a way, not to exceed 24 MHz
 672:Generated_Source\PSoC4/CyLib.c **** * for SYSCLK.
 673:Generated_Source\PSoC4/CyLib.c **** *
 674:Generated_Source\PSoC4/CyLib.c **** * If the SYSCLK clock frequency increases during the device operation, call
 675:Generated_Source\PSoC4/CyLib.c **** * \ref CySysFlashSetWaitCycles() with the appropriate parameter to adjust the
 676:Generated_Source\PSoC4/CyLib.c **** * number of clock cycles the cache will wait before sampling data comes back
 677:Generated_Source\PSoC4/CyLib.c **** * from Flash. If the SYSCLK clock frequency decreases, you can call
 678:Generated_Source\PSoC4/CyLib.c **** * \ref CySysFlashSetWaitCycles() to improve the CPU performance. See
 679:Generated_Source\PSoC4/CyLib.c **** * \ref CySysFlashSetWaitCycles() description for more information.
 680:Generated_Source\PSoC4/CyLib.c **** *
 681:Generated_Source\PSoC4/CyLib.c **** * \param divider Power of 2 prescaler selection
 682:Generated_Source\PSoC4/CyLib.c **** *  CY_SYS_CLK_SYSCLK_DIV1        SYSCLK = HFCLK / 1
 683:Generated_Source\PSoC4/CyLib.c **** *  CY_SYS_CLK_SYSCLK_DIV2        SYSCLK = HFCLK / 2
 684:Generated_Source\PSoC4/CyLib.c **** *  CY_SYS_CLK_SYSCLK_DIV4        SYSCLK = HFCLK / 4
 685:Generated_Source\PSoC4/CyLib.c **** *  CY_SYS_CLK_SYSCLK_DIV8        SYSCLK = HFCLK / 8
 686:Generated_Source\PSoC4/CyLib.c **** *  CY_SYS_CLK_SYSCLK_DIV16       SYSCLK = HFCLK / 16  (N/A for 4000 Family)
 687:Generated_Source\PSoC4/CyLib.c **** *  CY_SYS_CLK_SYSCLK_DIV32       SYSCLK = HFCLK / 32  (N/A for 4000 Family)
 688:Generated_Source\PSoC4/CyLib.c **** *  CY_SYS_CLK_SYSCLK_DIV64       SYSCLK = HFCLK / 64  (N/A for 4000 Family)
 689:Generated_Source\PSoC4/CyLib.c **** *  CY_SYS_CLK_SYSCLK_DIV128      SYSCLK = HFCLK / 128 (N/A for 4000 Family)
 690:Generated_Source\PSoC4/CyLib.c **** *
 691:Generated_Source\PSoC4/CyLib.c **** *******************************************************************************/
 692:Generated_Source\PSoC4/CyLib.c **** void CySysClkWriteSysclkDiv(uint32 divider)
 693:Generated_Source\PSoC4/CyLib.c **** {
 381              		.loc 1 693 0
 382              		.cfi_startproc
 383              		@ args = 0, pretend = 0, frame = 0
 384              		@ frame_needed = 0, uses_anonymous_args = 0
ARM GAS  C:\Users\Banni\AppData\Local\Temp\ccvFPZ8V.s 			page 20


 385              	.LVL25:
 386 0000 10B5     		push	{r4, lr}
 387              		.cfi_def_cfa_offset 8
 388              		.cfi_offset 4, -8
 389              		.cfi_offset 14, -4
 390 0002 0400     		movs	r4, r0
 694:Generated_Source\PSoC4/CyLib.c ****     uint8  interruptState;
 695:Generated_Source\PSoC4/CyLib.c **** 
 696:Generated_Source\PSoC4/CyLib.c ****     interruptState = CyEnterCriticalSection();
 391              		.loc 1 696 0
 392 0004 FFF7FEFF 		bl	CyEnterCriticalSection
 393              	.LVL26:
 697:Generated_Source\PSoC4/CyLib.c **** 
 698:Generated_Source\PSoC4/CyLib.c ****     CY_SYS_CLK_SELECT_REG = ((uint32)(((uint32)divider & CY_SYS_CLK_SELECT_SYSCLK_DIV_MASK) <<
 394              		.loc 1 698 0
 395 0008 A401     		lsls	r4, r4, #6
 396              	.LVL27:
 397 000a FF23     		movs	r3, #255
 398 000c 2340     		ands	r3, r4
 699:Generated_Source\PSoC4/CyLib.c ****                                     CY_SYS_CLK_SELECT_SYSCLK_DIV_SHIFT)) |
 700:Generated_Source\PSoC4/CyLib.c ****                             (CY_SYS_CLK_SELECT_REG & ((uint32)(~(uint32)(CY_SYS_CLK_SELECT_SYSCLK_D
 399              		.loc 1 700 0
 400 000e 0449     		ldr	r1, .L30
 401 0010 0A68     		ldr	r2, [r1]
 402 0012 C024     		movs	r4, #192
 403 0014 A243     		bics	r2, r4
 699:Generated_Source\PSoC4/CyLib.c ****                                     CY_SYS_CLK_SELECT_SYSCLK_DIV_SHIFT)) |
 404              		.loc 1 699 0
 405 0016 1343     		orrs	r3, r2
 698:Generated_Source\PSoC4/CyLib.c ****                                     CY_SYS_CLK_SELECT_SYSCLK_DIV_SHIFT)) |
 406              		.loc 1 698 0
 407 0018 0B60     		str	r3, [r1]
 701:Generated_Source\PSoC4/CyLib.c ****                                     CY_SYS_CLK_SELECT_SYSCLK_DIV_SHIFT))));
 702:Generated_Source\PSoC4/CyLib.c **** 
 703:Generated_Source\PSoC4/CyLib.c ****     CyExitCriticalSection(interruptState);
 408              		.loc 1 703 0
 409 001a FFF7FEFF 		bl	CyExitCriticalSection
 410              	.LVL28:
 704:Generated_Source\PSoC4/CyLib.c **** }
 411              		.loc 1 704 0
 412              		@ sp needed
 413 001e 10BD     		pop	{r4, pc}
 414              	.L31:
 415              		.align	2
 416              	.L30:
 417 0020 28000340 		.word	1073938472
 418              		.cfi_endproc
 419              	.LFE9:
 420              		.size	CySysClkWriteSysclkDiv, .-CySysClkWriteSysclkDiv
 421              		.section	.text.CySysClkWriteHfclkDiv,"ax",%progbits
 422              		.align	2
 423              		.global	CySysClkWriteHfclkDiv
 424              		.code	16
 425              		.thumb_func
 426              		.type	CySysClkWriteHfclkDiv, %function
 427              	CySysClkWriteHfclkDiv:
 428              	.LFB11:
ARM GAS  C:\Users\Banni\AppData\Local\Temp\ccvFPZ8V.s 			page 21


 705:Generated_Source\PSoC4/CyLib.c **** 
 706:Generated_Source\PSoC4/CyLib.c **** 
 707:Generated_Source\PSoC4/CyLib.c **** /*******************************************************************************
 708:Generated_Source\PSoC4/CyLib.c **** * Function Name: CySysClkWriteImoFreq
 709:Generated_Source\PSoC4/CyLib.c **** ****************************************************************************//**
 710:Generated_Source\PSoC4/CyLib.c **** *
 711:Generated_Source\PSoC4/CyLib.c **** * Sets the frequency of the IMO.
 712:Generated_Source\PSoC4/CyLib.c **** *
 713:Generated_Source\PSoC4/CyLib.c **** * PSoC 4000: The SYSCLK has the speed of 16 MHz, so HFCLK and SYSCLK dividers
 714:Generated_Source\PSoC4/CyLib.c **** * should be selected in a way, not to exceed 16 MHz for SYSCLK.
 715:Generated_Source\PSoC4/CyLib.c **** *
 716:Generated_Source\PSoC4/CyLib.c **** * PSoC 4100 \ PSoC 4100 BLE \ PSoC 4100M: The SYSCLK has the speed of 24 MHz,
 717:Generated_Source\PSoC4/CyLib.c **** * so HFCLK and SYSCLK dividers should be selected in a way, not to exceed 24 MHz
 718:Generated_Source\PSoC4/CyLib.c **** * for SYSCLK.
 719:Generated_Source\PSoC4/CyLib.c **** *
 720:Generated_Source\PSoC4/CyLib.c **** * For PSoC 4200M and PSoC 4200L device families, if WCO lock feature is enabled
 721:Generated_Source\PSoC4/CyLib.c **** * then this API will disable the lock, write the new IMO frequency and then
 722:Generated_Source\PSoC4/CyLib.c **** * re-enable the lock.
 723:Generated_Source\PSoC4/CyLib.c **** *
 724:Generated_Source\PSoC4/CyLib.c **** * For PSoC 4200L device families, this function enables the USB lock when 24 or
 725:Generated_Source\PSoC4/CyLib.c **** * 48 MHz passed as a parameter if the USB lock option is enabled in Design Wide
 726:Generated_Source\PSoC4/CyLib.c **** * Resources tab or CySysClkImoEnableUsbLock() was called before. Note the USB
 727:Generated_Source\PSoC4/CyLib.c **** * lock is disabled during IMO frequency change.
 728:Generated_Source\PSoC4/CyLib.c **** *
 729:Generated_Source\PSoC4/CyLib.c **** * The CPU is halted if new frequency is invalid and project is compiled
 730:Generated_Source\PSoC4/CyLib.c **** * in debug mode.
 731:Generated_Source\PSoC4/CyLib.c **** *
 732:Generated_Source\PSoC4/CyLib.c **** * If the SYSCLK clock frequency increases during the device operation, call
 733:Generated_Source\PSoC4/CyLib.c **** * \ref CySysFlashSetWaitCycles() with the appropriate parameter to adjust the
 734:Generated_Source\PSoC4/CyLib.c **** * number of clock cycles the cache will wait before sampling data comes back
 735:Generated_Source\PSoC4/CyLib.c **** * from Flash. If the SYSCLK clock frequency decreases, you can call
 736:Generated_Source\PSoC4/CyLib.c **** * \ref CySysFlashSetWaitCycles() to improve the CPU performance. See
 737:Generated_Source\PSoC4/CyLib.c **** * \ref CySysFlashSetWaitCycles() description for more information.
 738:Generated_Source\PSoC4/CyLib.c **** *
 739:Generated_Source\PSoC4/CyLib.c **** * PSoC 4000: The System Clock (SYSCLK) has maximum speed of 16 MHz, so HFCLK
 740:Generated_Source\PSoC4/CyLib.c **** * and SYSCLK dividers should be selected in a way, to not to exceed 16 MHz for
 741:Generated_Source\PSoC4/CyLib.c **** * the System clock.
 742:Generated_Source\PSoC4/CyLib.c **** *
 743:Generated_Source\PSoC4/CyLib.c **** * \param freq All PSoC 4 families excluding the following: Valid range [3-48]
 744:Generated_Source\PSoC4/CyLib.c **** * with step size equals 1. PSoC 4000: Valid values are 24, 32, and 48.
 745:Generated_Source\PSoC4/CyLib.c **** * PSoC 4000S / PSoC 4100S / PSoC Analog Coprocessor: Valid range [24-48] with 
 746:Generated_Source\PSoC4/CyLib.c **** * step size equals 4.
 747:Generated_Source\PSoC4/CyLib.c **** *
 748:Generated_Source\PSoC4/CyLib.c **** *******************************************************************************/
 749:Generated_Source\PSoC4/CyLib.c **** #if(CY_IP_SRSSV2)
 750:Generated_Source\PSoC4/CyLib.c ****     void CySysClkWriteImoFreq(uint32 freq)
 751:Generated_Source\PSoC4/CyLib.c ****     {
 752:Generated_Source\PSoC4/CyLib.c ****         #if (CY_IP_FMLT)
 753:Generated_Source\PSoC4/CyLib.c ****             volatile uint32   parameters[2u];
 754:Generated_Source\PSoC4/CyLib.c ****             volatile uint32   regValues[4u];
 755:Generated_Source\PSoC4/CyLib.c ****         #else
 756:Generated_Source\PSoC4/CyLib.c ****             uint8  bgTrim4;
 757:Generated_Source\PSoC4/CyLib.c ****             uint8  bgTrim5;
 758:Generated_Source\PSoC4/CyLib.c ****             uint8  newImoTrim2Value;
 759:Generated_Source\PSoC4/CyLib.c ****             uint8  currentImoTrim2Value;
 760:Generated_Source\PSoC4/CyLib.c ****         #endif /* (CY_IP_FM) */
 761:Generated_Source\PSoC4/CyLib.c **** 
ARM GAS  C:\Users\Banni\AppData\Local\Temp\ccvFPZ8V.s 			page 22


 762:Generated_Source\PSoC4/CyLib.c ****         #if (CY_IP_IMO_TRIMMABLE_BY_WCO)
 763:Generated_Source\PSoC4/CyLib.c ****             uint32 wcoLock = 0u;
 764:Generated_Source\PSoC4/CyLib.c ****         #endif  /* (CY_IP_IMO_TRIMMABLE_BY_WCO) */
 765:Generated_Source\PSoC4/CyLib.c **** 
 766:Generated_Source\PSoC4/CyLib.c ****         #if (CY_IP_IMO_TRIMMABLE_BY_USB)
 767:Generated_Source\PSoC4/CyLib.c ****             uint32 usbLock = 0u;
 768:Generated_Source\PSoC4/CyLib.c ****         #endif  /* (CY_IP_IMO_TRIMMABLE_BY_USB) */
 769:Generated_Source\PSoC4/CyLib.c **** 
 770:Generated_Source\PSoC4/CyLib.c ****         uint8  interruptState;
 771:Generated_Source\PSoC4/CyLib.c **** 
 772:Generated_Source\PSoC4/CyLib.c **** 
 773:Generated_Source\PSoC4/CyLib.c ****         interruptState = CyEnterCriticalSection();
 774:Generated_Source\PSoC4/CyLib.c **** 
 775:Generated_Source\PSoC4/CyLib.c ****         #if (CY_IP_IMO_TRIMMABLE_BY_WCO)
 776:Generated_Source\PSoC4/CyLib.c ****             if(0u != CySysClkImoGetWcoLock())
 777:Generated_Source\PSoC4/CyLib.c ****             {
 778:Generated_Source\PSoC4/CyLib.c ****                 wcoLock = 1u;
 779:Generated_Source\PSoC4/CyLib.c ****                 CySysClkImoDisableWcoLock();
 780:Generated_Source\PSoC4/CyLib.c ****             }
 781:Generated_Source\PSoC4/CyLib.c ****         #endif  /* (CY_IP_IMO_TRIMMABLE_BY_WCO) */
 782:Generated_Source\PSoC4/CyLib.c **** 
 783:Generated_Source\PSoC4/CyLib.c **** 
 784:Generated_Source\PSoC4/CyLib.c ****         #if (CY_IP_IMO_TRIMMABLE_BY_USB)
 785:Generated_Source\PSoC4/CyLib.c **** 
 786:Generated_Source\PSoC4/CyLib.c ****             #if (CYDEV_IMO_TRIMMED_BY_USB == 0u)
 787:Generated_Source\PSoC4/CyLib.c ****                 if(0u != CySysClkImoGetUsbLock())
 788:Generated_Source\PSoC4/CyLib.c ****                 {
 789:Generated_Source\PSoC4/CyLib.c ****             #endif  /* (CYDEV_IMO_TRIMMED_BY_USB == 0u) */
 790:Generated_Source\PSoC4/CyLib.c **** 
 791:Generated_Source\PSoC4/CyLib.c ****                 if ((24u == freq) || (48u == freq))
 792:Generated_Source\PSoC4/CyLib.c ****                 {
 793:Generated_Source\PSoC4/CyLib.c ****                     usbLock = 1u;
 794:Generated_Source\PSoC4/CyLib.c ****                     CySysClkImoDisableUsbLock();
 795:Generated_Source\PSoC4/CyLib.c ****                 }
 796:Generated_Source\PSoC4/CyLib.c **** 
 797:Generated_Source\PSoC4/CyLib.c ****             #if (CYDEV_IMO_TRIMMED_BY_USB == 0u)
 798:Generated_Source\PSoC4/CyLib.c ****                 }
 799:Generated_Source\PSoC4/CyLib.c ****             #endif  /* (CYDEV_IMO_TRIMMED_BY_USB == 0u) */
 800:Generated_Source\PSoC4/CyLib.c **** 
 801:Generated_Source\PSoC4/CyLib.c ****         #endif  /* (CYDEV_IMO_TRIMMED_BY_USB == 0u) */
 802:Generated_Source\PSoC4/CyLib.c **** 
 803:Generated_Source\PSoC4/CyLib.c **** 
 804:Generated_Source\PSoC4/CyLib.c ****         #if (CY_IP_FMLT)
 805:Generated_Source\PSoC4/CyLib.c **** 
 806:Generated_Source\PSoC4/CyLib.c ****             /* FM-Lite Clock Restore */
 807:Generated_Source\PSoC4/CyLib.c ****             regValues[0u] = CY_SYS_CLK_IMO_CONFIG_REG;
 808:Generated_Source\PSoC4/CyLib.c ****             regValues[1u] = CY_SYS_CLK_SELECT_REG;
 809:Generated_Source\PSoC4/CyLib.c ****             regValues[2u] = cyImoFreqMhz2Reg[freq - CY_SYS_CLK_IMO_FREQ_TABLE_OFFSET];
 810:Generated_Source\PSoC4/CyLib.c ****             regValues[3u] = CY_FLASH_CTL_REG;
 811:Generated_Source\PSoC4/CyLib.c **** 
 812:Generated_Source\PSoC4/CyLib.c ****             parameters[0u] =
 813:Generated_Source\PSoC4/CyLib.c ****                 (uint32) ((CY_FLASH_KEY_TWO(CY_FLASH_API_OPCODE_CLK_RESTORE) <<  CY_FLASH_PARAM_KEY
 814:Generated_Source\PSoC4/CyLib.c ****                             CY_FLASH_KEY_ONE);
 815:Generated_Source\PSoC4/CyLib.c ****             parameters[1u] = (uint32) &regValues[0u];
 816:Generated_Source\PSoC4/CyLib.c **** 
 817:Generated_Source\PSoC4/CyLib.c ****             CY_FLASH_CPUSS_SYSARG_REG = (uint32) &parameters[0u];
 818:Generated_Source\PSoC4/CyLib.c ****             CY_FLASH_CPUSS_SYSREQ_REG = CY_FLASH_CPUSS_REQ_START | CY_FLASH_API_OPCODE_CLK_RESTORE;
ARM GAS  C:\Users\Banni\AppData\Local\Temp\ccvFPZ8V.s 			page 23


 819:Generated_Source\PSoC4/CyLib.c ****             (void) CY_FLASH_CPUSS_SYSARG_REG;
 820:Generated_Source\PSoC4/CyLib.c **** 
 821:Generated_Source\PSoC4/CyLib.c ****         #else /* (CY_IP_FM) */
 822:Generated_Source\PSoC4/CyLib.c **** 
 823:Generated_Source\PSoC4/CyLib.c ****         if ((freq >= CY_SYS_CLK_IMO_MIN_FREQ_MHZ) && (freq <= CY_SYS_CLK_IMO_MAX_FREQ_MHZ))
 824:Generated_Source\PSoC4/CyLib.c ****         {
 825:Generated_Source\PSoC4/CyLib.c ****             if(freq <= CY_SFLASH_IMO_MAXF0_REG)
 826:Generated_Source\PSoC4/CyLib.c ****             {
 827:Generated_Source\PSoC4/CyLib.c ****                 bgTrim4 = CY_SFLASH_IMO_ABS0_REG;
 828:Generated_Source\PSoC4/CyLib.c ****                 bgTrim5 = CY_SFLASH_IMO_TMPCO0_REG;
 829:Generated_Source\PSoC4/CyLib.c ****             }
 830:Generated_Source\PSoC4/CyLib.c ****             else if(freq <= CY_SFLASH_IMO_MAXF1_REG)
 831:Generated_Source\PSoC4/CyLib.c ****             {
 832:Generated_Source\PSoC4/CyLib.c ****                 bgTrim4 = CY_SFLASH_IMO_ABS1_REG;
 833:Generated_Source\PSoC4/CyLib.c ****                 bgTrim5 = CY_SFLASH_IMO_TMPCO1_REG;
 834:Generated_Source\PSoC4/CyLib.c ****             }
 835:Generated_Source\PSoC4/CyLib.c ****             else if(freq <= CY_SFLASH_IMO_MAXF2_REG)
 836:Generated_Source\PSoC4/CyLib.c ****             {
 837:Generated_Source\PSoC4/CyLib.c ****                 bgTrim4 = CY_SFLASH_IMO_ABS2_REG;
 838:Generated_Source\PSoC4/CyLib.c ****                 bgTrim5 = CY_SFLASH_IMO_TMPCO2_REG;
 839:Generated_Source\PSoC4/CyLib.c ****             }
 840:Generated_Source\PSoC4/CyLib.c ****             else if(freq <= CY_SFLASH_IMO_MAXF3_REG)
 841:Generated_Source\PSoC4/CyLib.c ****             {
 842:Generated_Source\PSoC4/CyLib.c ****                 bgTrim4 = CY_SFLASH_IMO_ABS3_REG;
 843:Generated_Source\PSoC4/CyLib.c ****                 bgTrim5 = CY_SFLASH_IMO_TMPCO3_REG;
 844:Generated_Source\PSoC4/CyLib.c ****             }
 845:Generated_Source\PSoC4/CyLib.c ****             else
 846:Generated_Source\PSoC4/CyLib.c ****             {
 847:Generated_Source\PSoC4/CyLib.c ****                 bgTrim4 = CY_SFLASH_IMO_ABS4_REG;
 848:Generated_Source\PSoC4/CyLib.c ****                 bgTrim5 = CY_SFLASH_IMO_TMPCO4_REG;
 849:Generated_Source\PSoC4/CyLib.c ****             }
 850:Generated_Source\PSoC4/CyLib.c **** 
 851:Generated_Source\PSoC4/CyLib.c ****             /* Get IMO_TRIM2 value for the new frequency */
 852:Generated_Source\PSoC4/CyLib.c ****             newImoTrim2Value = cyImoFreqMhz2Reg[freq - CY_SYS_CLK_IMO_FREQ_TABLE_OFFSET];
 853:Generated_Source\PSoC4/CyLib.c **** 
 854:Generated_Source\PSoC4/CyLib.c **** 
 855:Generated_Source\PSoC4/CyLib.c ****             /****************************************************************************
 856:Generated_Source\PSoC4/CyLib.c ****             * The IMO can have a different trim per frequency. To avoid possible corner
 857:Generated_Source\PSoC4/CyLib.c ****             * cases where a trim change can exceed the maximum frequency, the trim must
 858:Generated_Source\PSoC4/CyLib.c ****             * be applied at a frequency that is low enough.
 859:Generated_Source\PSoC4/CyLib.c ****             *
 860:Generated_Source\PSoC4/CyLib.c ****             * Comparing IMO_TRIM2 values for the current and new frequencies, since
 861:Generated_Source\PSoC4/CyLib.c ****             * IMO_TRIM2 value as a function of IMO frequency is a strictly increasing
 862:Generated_Source\PSoC4/CyLib.c ****             * function and is time-invariant.
 863:Generated_Source\PSoC4/CyLib.c ****             ***************************************************************************/
 864:Generated_Source\PSoC4/CyLib.c ****             if ((newImoTrim2Value >= CY_SYS_CLK_IMO_BOUNDARY_FREQ_TRIM2) && (freq >= CY_SYS_CLK_IMO
 865:Generated_Source\PSoC4/CyLib.c ****             {
 866:Generated_Source\PSoC4/CyLib.c ****                 /* Set boundary IMO frequency: safe for IMO above 48 MHZ trimming */
 867:Generated_Source\PSoC4/CyLib.c ****                 CY_SYS_CLK_IMO_TRIM2_REG = (uint32) cyImoFreqMhz2Reg[CY_SYS_CLK_IMO_TEMP_FREQ_MHZ -
 868:Generated_Source\PSoC4/CyLib.c ****                                                                      CY_SYS_CLK_IMO_FREQ_TABLE_OFFS
 869:Generated_Source\PSoC4/CyLib.c **** 
 870:Generated_Source\PSoC4/CyLib.c ****                 CyDelayCycles(CY_SYS_CLK_IMO_FREQ_TIMEOUT_CYCLES);
 871:Generated_Source\PSoC4/CyLib.c **** 
 872:Generated_Source\PSoC4/CyLib.c ****                 currentImoTrim2Value = CY_SYS_CLK_IMO_TEMP_FREQ_TRIM2;
 873:Generated_Source\PSoC4/CyLib.c ****             }
 874:Generated_Source\PSoC4/CyLib.c ****             else
 875:Generated_Source\PSoC4/CyLib.c ****             {
ARM GAS  C:\Users\Banni\AppData\Local\Temp\ccvFPZ8V.s 			page 24


 876:Generated_Source\PSoC4/CyLib.c ****                 currentImoTrim2Value = (uint8) (CY_SYS_CLK_IMO_TRIM2_REG & CY_SYS_CLK_IMO_FREQ_BITS
 877:Generated_Source\PSoC4/CyLib.c ****             }
 878:Generated_Source\PSoC4/CyLib.c **** 
 879:Generated_Source\PSoC4/CyLib.c **** 
 880:Generated_Source\PSoC4/CyLib.c ****             /***************************************************************************
 881:Generated_Source\PSoC4/CyLib.c ****             * A trim change needs to be allowed to settle (within 5us) before the Freq
 882:Generated_Source\PSoC4/CyLib.c ****             * can be changed to a new frequency.
 883:Generated_Source\PSoC4/CyLib.c ****             *
 884:Generated_Source\PSoC4/CyLib.c ****             * Comparing IMO_TRIM2 values for the current and new frequencies, since
 885:Generated_Source\PSoC4/CyLib.c ****             * IMO_TRIM2 value as a function of IMO frequency is a strictly increasing
 886:Generated_Source\PSoC4/CyLib.c ****             * function and is time-invariant.
 887:Generated_Source\PSoC4/CyLib.c ****             ***************************************************************************/
 888:Generated_Source\PSoC4/CyLib.c ****             if (newImoTrim2Value < currentImoTrim2Value)
 889:Generated_Source\PSoC4/CyLib.c ****             {
 890:Generated_Source\PSoC4/CyLib.c ****                 /* Set new IMO frequency */
 891:Generated_Source\PSoC4/CyLib.c ****                 CY_SYS_CLK_IMO_TRIM2_REG = cyImoFreqMhz2Reg[freq - CY_SYS_CLK_IMO_FREQ_TABLE_OFFSET
 892:Generated_Source\PSoC4/CyLib.c ****                 CyDelayCycles(CY_SYS_CLK_IMO_FREQ_TIMEOUT_CYCLES);
 893:Generated_Source\PSoC4/CyLib.c ****             }
 894:Generated_Source\PSoC4/CyLib.c **** 
 895:Generated_Source\PSoC4/CyLib.c ****             /* Set trims for the new IMO frequency */
 896:Generated_Source\PSoC4/CyLib.c ****             CY_SYS_CLK_IMO_TRIM1_REG = (uint32) (uint8) CY_SFLASH_IMO_TRIM_REG(freq - CY_SYS_CLK_IM
 897:Generated_Source\PSoC4/CyLib.c ****             CY_PWR_BG_TRIM4_REG  = bgTrim4;
 898:Generated_Source\PSoC4/CyLib.c ****             CY_PWR_BG_TRIM5_REG  = bgTrim5;
 899:Generated_Source\PSoC4/CyLib.c ****             CyDelayUs(CY_SYS_CLK_IMO_TRIM_TIMEOUT_US);
 900:Generated_Source\PSoC4/CyLib.c **** 
 901:Generated_Source\PSoC4/CyLib.c ****             if (newImoTrim2Value > currentImoTrim2Value)
 902:Generated_Source\PSoC4/CyLib.c ****             {
 903:Generated_Source\PSoC4/CyLib.c ****                 /* Set new IMO frequency */
 904:Generated_Source\PSoC4/CyLib.c ****                 CY_SYS_CLK_IMO_TRIM2_REG = cyImoFreqMhz2Reg[freq - CY_SYS_CLK_IMO_FREQ_TABLE_OFFSET
 905:Generated_Source\PSoC4/CyLib.c ****                 CyDelayCycles(CY_SYS_CLK_IMO_FREQ_TIMEOUT_CYCLES);
 906:Generated_Source\PSoC4/CyLib.c ****             }
 907:Generated_Source\PSoC4/CyLib.c ****         }
 908:Generated_Source\PSoC4/CyLib.c ****         else
 909:Generated_Source\PSoC4/CyLib.c ****         {
 910:Generated_Source\PSoC4/CyLib.c ****             /* Halt CPU in debug mode if new frequency is invalid */
 911:Generated_Source\PSoC4/CyLib.c ****             CYASSERT(0u != 0u);
 912:Generated_Source\PSoC4/CyLib.c ****         }
 913:Generated_Source\PSoC4/CyLib.c **** 
 914:Generated_Source\PSoC4/CyLib.c ****         #endif /* (CY_IP_FMLT) */
 915:Generated_Source\PSoC4/CyLib.c **** 
 916:Generated_Source\PSoC4/CyLib.c ****         #if (CY_IP_IMO_TRIMMABLE_BY_WCO)
 917:Generated_Source\PSoC4/CyLib.c ****             if (1u == wcoLock)
 918:Generated_Source\PSoC4/CyLib.c ****             {
 919:Generated_Source\PSoC4/CyLib.c ****                 CySysClkImoEnableWcoLock();
 920:Generated_Source\PSoC4/CyLib.c ****             }
 921:Generated_Source\PSoC4/CyLib.c ****         #endif  /* (CY_IP_IMO_TRIMMABLE_BY_WCO) */
 922:Generated_Source\PSoC4/CyLib.c **** 
 923:Generated_Source\PSoC4/CyLib.c ****         #if (CY_IP_IMO_TRIMMABLE_BY_USB)
 924:Generated_Source\PSoC4/CyLib.c ****             if (1u == usbLock)
 925:Generated_Source\PSoC4/CyLib.c ****             {
 926:Generated_Source\PSoC4/CyLib.c ****                 CySysClkImoEnableUsbLock();
 927:Generated_Source\PSoC4/CyLib.c ****             }
 928:Generated_Source\PSoC4/CyLib.c ****         #endif  /* (CY_IP_IMO_TRIMMABLE_BY_USB) */
 929:Generated_Source\PSoC4/CyLib.c **** 
 930:Generated_Source\PSoC4/CyLib.c ****         CyExitCriticalSection(interruptState);
 931:Generated_Source\PSoC4/CyLib.c ****     }
 932:Generated_Source\PSoC4/CyLib.c **** 
ARM GAS  C:\Users\Banni\AppData\Local\Temp\ccvFPZ8V.s 			page 25


 933:Generated_Source\PSoC4/CyLib.c **** #else
 934:Generated_Source\PSoC4/CyLib.c **** 
 935:Generated_Source\PSoC4/CyLib.c ****     void CySysClkWriteImoFreq(uint32 freq)
 936:Generated_Source\PSoC4/CyLib.c ****     {
 937:Generated_Source\PSoC4/CyLib.c ****         uint8  interruptState;
 938:Generated_Source\PSoC4/CyLib.c ****         uint8  imoTrim1Value;
 939:Generated_Source\PSoC4/CyLib.c **** 
 940:Generated_Source\PSoC4/CyLib.c ****         #if (CY_IP_IMO_TRIMMABLE_BY_WCO)
 941:Generated_Source\PSoC4/CyLib.c ****             uint32 wcoLock = 0u;
 942:Generated_Source\PSoC4/CyLib.c ****         #endif  /* (CY_IP_IMO_TRIMMABLE_BY_WCO) */        
 943:Generated_Source\PSoC4/CyLib.c ****         
 944:Generated_Source\PSoC4/CyLib.c ****         #if (CY_IP_IMO_TRIMMABLE_BY_USB)
 945:Generated_Source\PSoC4/CyLib.c ****             uint32 usbLock = 0u;
 946:Generated_Source\PSoC4/CyLib.c ****         #endif  /* (CY_IP_IMO_TRIMMABLE_BY_USB) */
 947:Generated_Source\PSoC4/CyLib.c **** 
 948:Generated_Source\PSoC4/CyLib.c ****         #if (CY_PSOC4_4000)
 949:Generated_Source\PSoC4/CyLib.c ****             if ((freq == 24u) || (freq == 32u) || (freq == 48u))
 950:Generated_Source\PSoC4/CyLib.c ****         #elif (CY_CCG3)
 951:Generated_Source\PSoC4/CyLib.c ****             if ((freq == 24u) || (freq == 36u) || (freq == 48u))
 952:Generated_Source\PSoC4/CyLib.c ****         #else
 953:Generated_Source\PSoC4/CyLib.c ****             if ((freq == 24u) || (freq == 28u) || (freq == 32u) ||
 954:Generated_Source\PSoC4/CyLib.c ****                 (freq == 36u) || (freq == 40u) || (freq == 44u) ||
 955:Generated_Source\PSoC4/CyLib.c ****                 (freq == 48u))
 956:Generated_Source\PSoC4/CyLib.c ****         #endif /* (CY_PSOC4_4000) */
 957:Generated_Source\PSoC4/CyLib.c ****         {
 958:Generated_Source\PSoC4/CyLib.c ****             interruptState = CyEnterCriticalSection();
 959:Generated_Source\PSoC4/CyLib.c **** 
 960:Generated_Source\PSoC4/CyLib.c ****             #if (CY_IP_IMO_TRIMMABLE_BY_WCO)
 961:Generated_Source\PSoC4/CyLib.c ****                 if(0u != CySysClkImoGetWcoLock())
 962:Generated_Source\PSoC4/CyLib.c ****                 {
 963:Generated_Source\PSoC4/CyLib.c ****                     wcoLock = 1u;
 964:Generated_Source\PSoC4/CyLib.c ****                     CySysClkImoDisableWcoLock();
 965:Generated_Source\PSoC4/CyLib.c ****                 }
 966:Generated_Source\PSoC4/CyLib.c ****             #endif  /* (CY_IP_IMO_TRIMMABLE_BY_WCO) */
 967:Generated_Source\PSoC4/CyLib.c **** 
 968:Generated_Source\PSoC4/CyLib.c ****             #if (CY_IP_IMO_TRIMMABLE_BY_USB)
 969:Generated_Source\PSoC4/CyLib.c **** 
 970:Generated_Source\PSoC4/CyLib.c ****                 #if (CYDEV_IMO_TRIMMED_BY_USB == 0u)
 971:Generated_Source\PSoC4/CyLib.c ****                     if(0u != CySysClkImoGetUsbLock())
 972:Generated_Source\PSoC4/CyLib.c ****                     {
 973:Generated_Source\PSoC4/CyLib.c ****                 #endif  /* (CYDEV_IMO_TRIMMED_BY_USB == 0u) */
 974:Generated_Source\PSoC4/CyLib.c **** 
 975:Generated_Source\PSoC4/CyLib.c ****                     if (48u == freq)
 976:Generated_Source\PSoC4/CyLib.c ****                     {
 977:Generated_Source\PSoC4/CyLib.c ****                         usbLock = 1u;
 978:Generated_Source\PSoC4/CyLib.c ****                         CySysClkImoDisableUsbLock();
 979:Generated_Source\PSoC4/CyLib.c ****                     }
 980:Generated_Source\PSoC4/CyLib.c **** 
 981:Generated_Source\PSoC4/CyLib.c ****                 #if (CYDEV_IMO_TRIMMED_BY_USB == 0u)
 982:Generated_Source\PSoC4/CyLib.c ****                     }
 983:Generated_Source\PSoC4/CyLib.c ****                 #endif  /* (CYDEV_IMO_TRIMMED_BY_USB == 0u) */
 984:Generated_Source\PSoC4/CyLib.c **** 
 985:Generated_Source\PSoC4/CyLib.c ****             #endif  /* (CYDEV_IMO_TRIMMED_BY_USB == 0u) */
 986:Generated_Source\PSoC4/CyLib.c **** 
 987:Generated_Source\PSoC4/CyLib.c **** 
 988:Generated_Source\PSoC4/CyLib.c ****             /* Set IMO to 24 MHz - CLK_IMO_SELECT.FREQ = 0 */
 989:Generated_Source\PSoC4/CyLib.c ****             CY_SYS_CLK_IMO_SELECT_REG &= ((uint32) ~CY_SYS_CLK_IMO_SELECT_FREQ_MASK);
ARM GAS  C:\Users\Banni\AppData\Local\Temp\ccvFPZ8V.s 			page 26


 990:Generated_Source\PSoC4/CyLib.c **** 
 991:Generated_Source\PSoC4/CyLib.c **** 
 992:Generated_Source\PSoC4/CyLib.c ****             /* Apply coarse trim */
 993:Generated_Source\PSoC4/CyLib.c ****             #if (CY_IP_IMO_TRIMMABLE_BY_USB)
 994:Generated_Source\PSoC4/CyLib.c ****                 if ((1u == usbLock) && (48u == freq))
 995:Generated_Source\PSoC4/CyLib.c ****                 {
 996:Generated_Source\PSoC4/CyLib.c ****                     imoTrim1Value = CY_SFLASH_IMO_TRIM_USBMODE_48_REG;
 997:Generated_Source\PSoC4/CyLib.c ****                 }
 998:Generated_Source\PSoC4/CyLib.c ****                 else if ((1u == usbLock) && (24u == freq))
 999:Generated_Source\PSoC4/CyLib.c ****                 {
1000:Generated_Source\PSoC4/CyLib.c ****                     imoTrim1Value = CY_SFLASH_IMO_TRIM_USBMODE_24_REG;
1001:Generated_Source\PSoC4/CyLib.c ****                 }
1002:Generated_Source\PSoC4/CyLib.c ****                 else
1003:Generated_Source\PSoC4/CyLib.c ****                 {
1004:Generated_Source\PSoC4/CyLib.c ****                     imoTrim1Value = (uint8) CY_SFLASH_IMO_TRIM_REG(freq - CY_SYS_CLK_IMO_MIN_FREQ_M
1005:Generated_Source\PSoC4/CyLib.c ****                 }
1006:Generated_Source\PSoC4/CyLib.c ****             #else
1007:Generated_Source\PSoC4/CyLib.c ****                 imoTrim1Value = (uint8) CY_SFLASH_IMO_TRIM_REG(freq - CY_SYS_CLK_IMO_MIN_FREQ_MHZ);
1008:Generated_Source\PSoC4/CyLib.c ****             #endif  /* (CY_IP_IMO_TRIMMABLE_BY_USB) */
1009:Generated_Source\PSoC4/CyLib.c ****             CY_SYS_CLK_IMO_TRIM1_REG = (uint32) imoTrim1Value;
1010:Generated_Source\PSoC4/CyLib.c **** 
1011:Generated_Source\PSoC4/CyLib.c ****             /* Zero out fine trim */
1012:Generated_Source\PSoC4/CyLib.c ****             CY_SYS_CLK_IMO_TRIM2_REG = CY_SYS_CLK_IMO_TRIM2_REG & ((uint32) ~CY_SYS_CLK_IMO_TRIM2_F
1013:Generated_Source\PSoC4/CyLib.c **** 
1014:Generated_Source\PSoC4/CyLib.c ****             /* Apply TC trim */
1015:Generated_Source\PSoC4/CyLib.c ****             CY_SYS_CLK_IMO_TRIM3_REG = (CY_SYS_CLK_IMO_TRIM3_REG & ((uint32) ~CY_SYS_CLK_IMO_TRIM3_
1016:Generated_Source\PSoC4/CyLib.c ****                 (CY_SFLASH_IMO_TCTRIM_REG(freq - CY_SYS_CLK_IMO_MIN_FREQ_MHZ) & CY_SYS_CLK_IMO_TRIM
1017:Generated_Source\PSoC4/CyLib.c **** 
1018:Generated_Source\PSoC4/CyLib.c ****             CyDelayCycles(CY_SYS_CLK_IMO_TRIM_DELAY_CYCLES);
1019:Generated_Source\PSoC4/CyLib.c **** 
1020:Generated_Source\PSoC4/CyLib.c ****             if (freq > CY_SYS_CLK_IMO_MIN_FREQ_MHZ)
1021:Generated_Source\PSoC4/CyLib.c ****             {
1022:Generated_Source\PSoC4/CyLib.c ****                 /* Select nearby intermediate frequency */
1023:Generated_Source\PSoC4/CyLib.c ****                 CY_SYS_CLK_IMO_SELECT_REG = (CY_SYS_CLK_IMO_SELECT_REG & ((uint32) ~CY_SYS_CLK_IMO_
1024:Generated_Source\PSoC4/CyLib.c ****                     (((freq - 4u - CY_SYS_CLK_IMO_MIN_FREQ_MHZ) >> 2u) & CY_SYS_CLK_IMO_SELECT_FREQ
1025:Generated_Source\PSoC4/CyLib.c **** 
1026:Generated_Source\PSoC4/CyLib.c ****                 CyDelayCycles(CY_SYS_CLK_IMO_TRIM_DELAY_CYCLES);
1027:Generated_Source\PSoC4/CyLib.c **** 
1028:Generated_Source\PSoC4/CyLib.c ****                 /* Make small step to final frequency */
1029:Generated_Source\PSoC4/CyLib.c ****                 /* Select nearby intermediate frequency */
1030:Generated_Source\PSoC4/CyLib.c ****                 CY_SYS_CLK_IMO_SELECT_REG = (CY_SYS_CLK_IMO_SELECT_REG & ((uint32) ~CY_SYS_CLK_IMO_
1031:Generated_Source\PSoC4/CyLib.c ****                     (((freq - CY_SYS_CLK_IMO_MIN_FREQ_MHZ) >> 2u) & CY_SYS_CLK_IMO_SELECT_FREQ_MASK
1032:Generated_Source\PSoC4/CyLib.c ****             }
1033:Generated_Source\PSoC4/CyLib.c **** 
1034:Generated_Source\PSoC4/CyLib.c ****             #if (CY_IP_IMO_TRIMMABLE_BY_WCO)
1035:Generated_Source\PSoC4/CyLib.c ****                 if (1u == wcoLock)
1036:Generated_Source\PSoC4/CyLib.c ****                 {
1037:Generated_Source\PSoC4/CyLib.c ****                     CySysClkImoEnableWcoLock();
1038:Generated_Source\PSoC4/CyLib.c ****                 }
1039:Generated_Source\PSoC4/CyLib.c ****             #endif  /* (CY_IP_IMO_TRIMMABLE_BY_WCO) */
1040:Generated_Source\PSoC4/CyLib.c ****         
1041:Generated_Source\PSoC4/CyLib.c ****         
1042:Generated_Source\PSoC4/CyLib.c ****             #if (CY_IP_IMO_TRIMMABLE_BY_USB)
1043:Generated_Source\PSoC4/CyLib.c ****                 if (1u == usbLock)
1044:Generated_Source\PSoC4/CyLib.c ****                 {
1045:Generated_Source\PSoC4/CyLib.c ****                     CySysClkImoEnableUsbLock();
1046:Generated_Source\PSoC4/CyLib.c ****                 }
ARM GAS  C:\Users\Banni\AppData\Local\Temp\ccvFPZ8V.s 			page 27


1047:Generated_Source\PSoC4/CyLib.c ****             #endif  /* (CY_IP_IMO_TRIMMABLE_BY_USB) */
1048:Generated_Source\PSoC4/CyLib.c **** 
1049:Generated_Source\PSoC4/CyLib.c ****             CyExitCriticalSection(interruptState);
1050:Generated_Source\PSoC4/CyLib.c ****         }
1051:Generated_Source\PSoC4/CyLib.c ****         else
1052:Generated_Source\PSoC4/CyLib.c ****         {
1053:Generated_Source\PSoC4/CyLib.c ****             /* Halt CPU in debug mode if new frequency is invalid */
1054:Generated_Source\PSoC4/CyLib.c ****             CYASSERT(0u != 0u);
1055:Generated_Source\PSoC4/CyLib.c ****         }
1056:Generated_Source\PSoC4/CyLib.c ****     }
1057:Generated_Source\PSoC4/CyLib.c **** 
1058:Generated_Source\PSoC4/CyLib.c **** #endif /* (CY_IP_SRSSV2) */
1059:Generated_Source\PSoC4/CyLib.c **** 
1060:Generated_Source\PSoC4/CyLib.c **** 
1061:Generated_Source\PSoC4/CyLib.c **** #if(CY_IP_SRSSLT)
1062:Generated_Source\PSoC4/CyLib.c ****     /*******************************************************************************
1063:Generated_Source\PSoC4/CyLib.c ****     * Function Name: CySysClkWriteHfclkDiv
1064:Generated_Source\PSoC4/CyLib.c ****     ****************************************************************************//**
1065:Generated_Source\PSoC4/CyLib.c ****     *
1066:Generated_Source\PSoC4/CyLib.c ****     * Selects the pre-scaler divider value for HFCLK from IMO.
1067:Generated_Source\PSoC4/CyLib.c ****     *
1068:Generated_Source\PSoC4/CyLib.c ****     * The HFCLK predivider allows the device to divide the HFCLK selection mux
1069:Generated_Source\PSoC4/CyLib.c ****     * input before use as HFCLK. The predivider is capable of dividing the HFCLK by
1070:Generated_Source\PSoC4/CyLib.c ****     * powers of 2 between 1 and 8.
1071:Generated_Source\PSoC4/CyLib.c ****     *
1072:Generated_Source\PSoC4/CyLib.c ****     * PSoC 4000: The SYSCLK has the speed of 16 MHz, so HFCLK and SYSCLK dividers
1073:Generated_Source\PSoC4/CyLib.c ****     * should be selected in a way, not to exceed 16 MHz for SYSCLK.
1074:Generated_Source\PSoC4/CyLib.c ****     *
1075:Generated_Source\PSoC4/CyLib.c ****     * If the SYSCLK clock frequency increases during the device operation, call
1076:Generated_Source\PSoC4/CyLib.c ****     * \ref CySysFlashSetWaitCycles() with the appropriate parameter to adjust the
1077:Generated_Source\PSoC4/CyLib.c ****     * number of clock cycles the cache will wait before sampling data comes back
1078:Generated_Source\PSoC4/CyLib.c ****     * from Flash. If the SYSCLK clock frequency decreases, you can call
1079:Generated_Source\PSoC4/CyLib.c ****     * \ref CySysFlashSetWaitCycles() to improve the CPU performance. See
1080:Generated_Source\PSoC4/CyLib.c ****     * \ref CySysFlashSetWaitCycles() description for more information.
1081:Generated_Source\PSoC4/CyLib.c ****     *
1082:Generated_Source\PSoC4/CyLib.c ****     * \param \ref CY_SYS_CLK_HFCLK_DIV_NODIV    Transparent mode (w/o dividing)
1083:Generated_Source\PSoC4/CyLib.c ****     * \param \ref CY_SYS_CLK_HFCLK_DIV_2        Divide selected clock source by 2
1084:Generated_Source\PSoC4/CyLib.c ****     * \param \ref CY_SYS_CLK_HFCLK_DIV_4        Divide selected clock source by 4
1085:Generated_Source\PSoC4/CyLib.c ****     * \param \ref CY_SYS_CLK_HFCLK_DIV_8        Divide selected clock source by 8
1086:Generated_Source\PSoC4/CyLib.c ****     *
1087:Generated_Source\PSoC4/CyLib.c ****     *******************************************************************************/
1088:Generated_Source\PSoC4/CyLib.c ****     void CySysClkWriteHfclkDiv(uint32 divider)
1089:Generated_Source\PSoC4/CyLib.c ****     {
 429              		.loc 1 1089 0
 430              		.cfi_startproc
 431              		@ args = 0, pretend = 0, frame = 0
 432              		@ frame_needed = 0, uses_anonymous_args = 0
 433              	.LVL29:
 434 0000 70B5     		push	{r4, r5, r6, lr}
 435              		.cfi_def_cfa_offset 16
 436              		.cfi_offset 4, -16
 437              		.cfi_offset 5, -12
 438              		.cfi_offset 6, -8
 439              		.cfi_offset 14, -4
 440 0002 0400     		movs	r4, r0
1090:Generated_Source\PSoC4/CyLib.c ****         uint8  interruptState;
1091:Generated_Source\PSoC4/CyLib.c **** 
ARM GAS  C:\Users\Banni\AppData\Local\Temp\ccvFPZ8V.s 			page 28


1092:Generated_Source\PSoC4/CyLib.c ****         interruptState = CyEnterCriticalSection();
 441              		.loc 1 1092 0
 442 0004 FFF7FEFF 		bl	CyEnterCriticalSection
 443              	.LVL30:
1093:Generated_Source\PSoC4/CyLib.c **** 
1094:Generated_Source\PSoC4/CyLib.c ****         CY_SYS_CLK_SELECT_REG = ((CY_SYS_CLK_SELECT_REG & ((uint32) (~(CY_SYS_CLK_SELECT_HFCLK_DIV_
 444              		.loc 1 1094 0
 445 0008 0549     		ldr	r1, .L33
 446 000a 0A68     		ldr	r2, [r1]
 447 000c 0C25     		movs	r5, #12
 448 000e AA43     		bics	r2, r5
1095:Generated_Source\PSoC4/CyLib.c ****                                         CY_SYS_CLK_SELECT_HFCLK_DIV_SHIFT)))) |
1096:Generated_Source\PSoC4/CyLib.c ****                     ((uint32)((divider & CY_SYS_CLK_SELECT_HFCLK_DIV_MASK) << CY_SYS_CLK_SELECT_HFC
 449              		.loc 1 1096 0
 450 0010 A300     		lsls	r3, r4, #2
 451 0012 2C00     		movs	r4, r5
 452              	.LVL31:
 453 0014 1C40     		ands	r4, r3
1095:Generated_Source\PSoC4/CyLib.c ****                                         CY_SYS_CLK_SELECT_HFCLK_DIV_SHIFT)))) |
 454              		.loc 1 1095 0
 455 0016 1443     		orrs	r4, r2
1094:Generated_Source\PSoC4/CyLib.c ****                                         CY_SYS_CLK_SELECT_HFCLK_DIV_SHIFT)))) |
 456              		.loc 1 1094 0
 457 0018 0C60     		str	r4, [r1]
1097:Generated_Source\PSoC4/CyLib.c **** 
1098:Generated_Source\PSoC4/CyLib.c ****         CyExitCriticalSection(interruptState);
 458              		.loc 1 1098 0
 459 001a FFF7FEFF 		bl	CyExitCriticalSection
 460              	.LVL32:
1099:Generated_Source\PSoC4/CyLib.c ****     }
 461              		.loc 1 1099 0
 462              		@ sp needed
 463 001e 70BD     		pop	{r4, r5, r6, pc}
 464              	.L34:
 465              		.align	2
 466              	.L33:
 467 0020 28000340 		.word	1073938472
 468              		.cfi_endproc
 469              	.LFE11:
 470              		.size	CySysClkWriteHfclkDiv, .-CySysClkWriteHfclkDiv
 471              		.section	.text.CySysClkEcoStop,"ax",%progbits
 472              		.align	2
 473              		.global	CySysClkEcoStop
 474              		.code	16
 475              		.thumb_func
 476              		.type	CySysClkEcoStop, %function
 477              	CySysClkEcoStop:
 478              	.LFB13:
1100:Generated_Source\PSoC4/CyLib.c **** #endif /* (CY_IP_SRSSLT) */
1101:Generated_Source\PSoC4/CyLib.c **** 
1102:Generated_Source\PSoC4/CyLib.c **** 
1103:Generated_Source\PSoC4/CyLib.c **** #if (CY_IP_ECO)
1104:Generated_Source\PSoC4/CyLib.c **** 
1105:Generated_Source\PSoC4/CyLib.c ****     /*******************************************************************************
1106:Generated_Source\PSoC4/CyLib.c ****     * Function Name: CySysClkEcoStart
1107:Generated_Source\PSoC4/CyLib.c ****     ****************************************************************************//**
1108:Generated_Source\PSoC4/CyLib.c ****     *
ARM GAS  C:\Users\Banni\AppData\Local\Temp\ccvFPZ8V.s 			page 29


1109:Generated_Source\PSoC4/CyLib.c ****     * Starts the External Crystal Oscillator (ECO). Refer to the device datasheet
1110:Generated_Source\PSoC4/CyLib.c ****     * for the ECO startup time.
1111:Generated_Source\PSoC4/CyLib.c ****     *
1112:Generated_Source\PSoC4/CyLib.c ****     * The timeout interval is measured based on the system frequency defined by
1113:Generated_Source\PSoC4/CyLib.c ****     * PSoC Creator at build time. If System clock frequency is changed in
1114:Generated_Source\PSoC4/CyLib.c ****     * runtime, the \ref CyDelayFreq() with the appropriate parameter should be
1115:Generated_Source\PSoC4/CyLib.c ****     * called.
1116:Generated_Source\PSoC4/CyLib.c ****     *
1117:Generated_Source\PSoC4/CyLib.c ****     * PSoC 4100 BLE / PSoC 4200 BLE: The WCO must be enabled prior to enabling ECO.
1118:Generated_Source\PSoC4/CyLib.c ****     *
1119:Generated_Source\PSoC4/CyLib.c ****     * \param timeoutUs Timeout in microseconds.
1120:Generated_Source\PSoC4/CyLib.c ****     *
1121:Generated_Source\PSoC4/CyLib.c ****     * If zero is specified, the function does not wait for timeout and returns
1122:Generated_Source\PSoC4/CyLib.c ****     * CYRET_SUCCESS. If non-zero is specified, the function waits for the timeout.
1123:Generated_Source\PSoC4/CyLib.c ****     *
1124:Generated_Source\PSoC4/CyLib.c ****     * \return \ref CYRET_SUCCESS Completed successfully. The ECO is oscillating and
1125:Generated_Source\PSoC4/CyLib.c ****     * amplitude reached 60% and it does not mean 24 MHz crystal is within 50 ppm.
1126:Generated_Source\PSoC4/CyLib.c ****     *
1127:Generated_Source\PSoC4/CyLib.c ****     * \return \ref CYRET_TIMEOUT Timeout occurred. If the crystal is not oscillating
1128:Generated_Source\PSoC4/CyLib.c ****     * or amplitude didn't reach 60% after specified amount of time, CYRET_TIMEOUT
1129:Generated_Source\PSoC4/CyLib.c ****     * is returned.
1130:Generated_Source\PSoC4/CyLib.c ****     *
1131:Generated_Source\PSoC4/CyLib.c ****     * \return \ref CYRET_BAD_PARAM One or more invalid parameters.
1132:Generated_Source\PSoC4/CyLib.c ****     *
1133:Generated_Source\PSoC4/CyLib.c ****     *******************************************************************************/
1134:Generated_Source\PSoC4/CyLib.c ****     cystatus CySysClkEcoStart(uint32 timeoutUs)
1135:Generated_Source\PSoC4/CyLib.c ****     {
1136:Generated_Source\PSoC4/CyLib.c ****         cystatus returnStatus = CYRET_SUCCESS;
1137:Generated_Source\PSoC4/CyLib.c **** 
1138:Generated_Source\PSoC4/CyLib.c ****         #if (CY_IP_ECO_BLESS)
1139:Generated_Source\PSoC4/CyLib.c ****             /* Enable the RF oscillator band gap */
1140:Generated_Source\PSoC4/CyLib.c ****             CY_SYS_XTAL_BLESS_RF_CONFIG_REG |= CY_SYS_XTAL_BLESS_RF_CONFIG_RF_ENABLE;
1141:Generated_Source\PSoC4/CyLib.c **** 
1142:Generated_Source\PSoC4/CyLib.c ****             /* Update trimming register */
1143:Generated_Source\PSoC4/CyLib.c ****             CY_SYS_XTAL_BLERD_BB_XO_REG = CY_SYS_XTAL_BLERD_BB_XO_TRIM;
1144:Generated_Source\PSoC4/CyLib.c **** 
1145:Generated_Source\PSoC4/CyLib.c ****             /* Enable the Crystal */
1146:Generated_Source\PSoC4/CyLib.c ****             CY_SYS_XTAL_BLERD_DBUS_REG |= CY_SYS_XTAL_BLERD_DBUS_XTAL_ENABLE;
1147:Generated_Source\PSoC4/CyLib.c ****         
1148:Generated_Source\PSoC4/CyLib.c ****         #elif (CY_IP_ECO_BLESSV3)
1149:Generated_Source\PSoC4/CyLib.c ****             uint32 regConfig;
1150:Generated_Source\PSoC4/CyLib.c ****             uint32 intrRegMaskStore = 0u;
1151:Generated_Source\PSoC4/CyLib.c ****             
1152:Generated_Source\PSoC4/CyLib.c ****             if (0u != (CY_SYS_BLESS_MT_CFG_REG & (CY_SYS_BLESS_MT_CFG_ENABLE_BLERD <<  CYFLD_BLE_BL
1153:Generated_Source\PSoC4/CyLib.c ****             {
1154:Generated_Source\PSoC4/CyLib.c ****                 CY_SYS_BLESS_MT_CFG_REG |= (CY_SYS_BLESS_MT_CFG_DPSLP_ECO_ON  <<  CYFLD_BLE_BLESS_D
1155:Generated_Source\PSoC4/CyLib.c ****             }
1156:Generated_Source\PSoC4/CyLib.c ****             else
1157:Generated_Source\PSoC4/CyLib.c ****             {
1158:Generated_Source\PSoC4/CyLib.c ****                 /* Init BLE core */
1159:Generated_Source\PSoC4/CyLib.c ****                 CY_SYS_BLESS_MT_DELAY_CFG_REG = CY_SYS_BLESS_MT_DELAY_CFG_INIT;
1160:Generated_Source\PSoC4/CyLib.c ****                 CY_SYS_BLESS_MT_DELAY_CFG2_REG = CY_SYS_BLESS_MT_DELAY_CFG2_INIT;
1161:Generated_Source\PSoC4/CyLib.c ****                 CY_SYS_BLESS_MT_DELAY_CFG3_REG = CY_SYS_BLESS_MT_DELAY_CFG3_INIT;
1162:Generated_Source\PSoC4/CyLib.c ****             
1163:Generated_Source\PSoC4/CyLib.c ****                 /* RCB init */
1164:Generated_Source\PSoC4/CyLib.c ****                 regConfig = CY_SYS_RCB_CTRL_REG;
1165:Generated_Source\PSoC4/CyLib.c ****                 regConfig &= CY_SYS_RCB_CTRL_CLEAR;
ARM GAS  C:\Users\Banni\AppData\Local\Temp\ccvFPZ8V.s 			page 30


1166:Generated_Source\PSoC4/CyLib.c ****                 regConfig |= CY_SYS_RCB_CTRL_INIT;
1167:Generated_Source\PSoC4/CyLib.c ****                 CY_SYS_RCB_CTRL_REG = regConfig;
1168:Generated_Source\PSoC4/CyLib.c ****                 
1169:Generated_Source\PSoC4/CyLib.c ****                 intrRegMaskStore = CY_SYS_BLESS_INTR_MASK_REG;
1170:Generated_Source\PSoC4/CyLib.c ****                 if(0u != (CY_SYS_BLESS_BLERD_ACTIVE_INTR_MASK & intrRegMaskStore))
1171:Generated_Source\PSoC4/CyLib.c ****                 {
1172:Generated_Source\PSoC4/CyLib.c ****                     CY_SYS_BLESS_INTR_MASK_REG &= ~CY_SYS_BLESS_BLERD_ACTIVE_INTR_MASK;
1173:Generated_Source\PSoC4/CyLib.c ****                 }
1174:Generated_Source\PSoC4/CyLib.c ****                 
1175:Generated_Source\PSoC4/CyLib.c ****                 /* Enable BLE core */
1176:Generated_Source\PSoC4/CyLib.c ****                 regConfig = CY_SYS_BLESS_MT_CFG_REG;
1177:Generated_Source\PSoC4/CyLib.c ****                 regConfig &= CY_SYS_BLESS_MT_CFG_CLEAR;
1178:Generated_Source\PSoC4/CyLib.c ****                 regConfig |= CY_SYS_BLESS_MT_CFG_INIT;
1179:Generated_Source\PSoC4/CyLib.c ****                 CY_SYS_BLESS_MT_CFG_REG = regConfig;
1180:Generated_Source\PSoC4/CyLib.c **** 
1181:Generated_Source\PSoC4/CyLib.c ****                 while(0u == ((CY_SYS_BLESS_BLERD_ACTIVE_INTR_STAT & CY_SYS_BLESS_INTR_STAT_REG)))
1182:Generated_Source\PSoC4/CyLib.c ****                 {
1183:Generated_Source\PSoC4/CyLib.c ****                     /* Wait until BLERD55 moves to active state */
1184:Generated_Source\PSoC4/CyLib.c ****                 }
1185:Generated_Source\PSoC4/CyLib.c **** 
1186:Generated_Source\PSoC4/CyLib.c ****                 if(0u != (CY_SYS_BLESS_BLERD_ACTIVE_INTR_MASK & intrRegMaskStore))
1187:Generated_Source\PSoC4/CyLib.c ****                 {
1188:Generated_Source\PSoC4/CyLib.c ****                     CY_SYS_BLESS_INTR_MASK_REG |= CY_SYS_BLESS_BLERD_ACTIVE_INTR_MASK;
1189:Generated_Source\PSoC4/CyLib.c ****                 }
1190:Generated_Source\PSoC4/CyLib.c ****                 
1191:Generated_Source\PSoC4/CyLib.c ****                 /* Send write commands to RBUS */
1192:Generated_Source\PSoC4/CyLib.c ****                 CY_SYS_RCB_TX_FIFO_WR_REG = CY_SYS_RCB_RBUS_FREQ_NRST_SET;
1193:Generated_Source\PSoC4/CyLib.c ****                 CY_SYS_RCB_TX_FIFO_WR_REG = CY_SYS_RCB_RBUS_DIG_CLK_SET;
1194:Generated_Source\PSoC4/CyLib.c ****                 
1195:Generated_Source\PSoC4/CyLib.c ****                 #if (CY_SYS_BLE_CLK_ECO_FREQ_32MHZ == CYDEV_ECO_CLK_MHZ)
1196:Generated_Source\PSoC4/CyLib.c ****                     CY_SYS_RCB_TX_FIFO_WR_REG = CY_SYS_RCB_RBUS_FREQ_XTAL_DIV_SET;
1197:Generated_Source\PSoC4/CyLib.c ****                     CY_SYS_RCB_TX_FIFO_WR_REG = (CY_SYS_RCB_RBUS_RF_DCXO_CFG_SET | CY_SYS_RCB_RBUS_
1198:Generated_Source\PSoC4/CyLib.c ****                 #else
1199:Generated_Source\PSoC4/CyLib.c ****                     CY_SYS_RCB_TX_FIFO_WR_REG = CY_SYS_RCB_RBUS_FREQ_XTAL_NODIV_SET;
1200:Generated_Source\PSoC4/CyLib.c ****                 #endif
1201:Generated_Source\PSoC4/CyLib.c ****                 
1202:Generated_Source\PSoC4/CyLib.c ****                 intrRegMaskStore = CY_SYS_BLESS_INTR_MASK_REG;
1203:Generated_Source\PSoC4/CyLib.c ****                 if(0u != (CY_SYS_RCB_INTR_RCB_DONE & intrRegMaskStore))
1204:Generated_Source\PSoC4/CyLib.c ****                 {
1205:Generated_Source\PSoC4/CyLib.c ****                     CY_SYS_BLESS_INTR_MASK_REG &= ~(CY_SYS_RCB_INTR_RCB_DONE | CY_SYS_RCB_INTR_RCB_
1206:Generated_Source\PSoC4/CyLib.c ****                 }
1207:Generated_Source\PSoC4/CyLib.c ****                 
1208:Generated_Source\PSoC4/CyLib.c ****                 /* Send read commands to RBUS */
1209:Generated_Source\PSoC4/CyLib.c ****                 CY_SYS_RCB_TX_FIFO_WR_REG = (CY_SYS_RCB_RBUS_RD_CMD | 
1210:Generated_Source\PSoC4/CyLib.c ****                                             (CY_SYS_RCB_RBUS_RF_DCXO_CFG_SET & ~CY_SYS_RCB_RBUS_VAL
1211:Generated_Source\PSoC4/CyLib.c ****                                             
1212:Generated_Source\PSoC4/CyLib.c ****                 while (0u == (CY_SYS_RCB_INTR_RCB_RX_FIFO_NOT_EMPTY & CY_SYS_RCB_INTR_REG))
1213:Generated_Source\PSoC4/CyLib.c ****                 {
1214:Generated_Source\PSoC4/CyLib.c ****                     /* Wait until RX_FIFO_NOT_EMPTY state */
1215:Generated_Source\PSoC4/CyLib.c ****                 }
1216:Generated_Source\PSoC4/CyLib.c **** 
1217:Generated_Source\PSoC4/CyLib.c ****                 CY_SYS_RCB_INTR_REG |= CY_SYS_RCB_INTR_RCB_DONE;
1218:Generated_Source\PSoC4/CyLib.c ****                 
1219:Generated_Source\PSoC4/CyLib.c ****                 regConfig = CY_SYS_RCB_RX_FIFO_RD_REG & CY_SYS_RCB_RBUS_TRIM_MASK;
1220:Generated_Source\PSoC4/CyLib.c ****                 
1221:Generated_Source\PSoC4/CyLib.c ****                 /* Send write commands to RBUS */
1222:Generated_Source\PSoC4/CyLib.c ****                 CY_SYS_RCB_TX_FIFO_WR_REG = (CY_SYS_RCB_RBUS_RF_DCXO_CFG_SET | regConfig | CY_SYS_R
ARM GAS  C:\Users\Banni\AppData\Local\Temp\ccvFPZ8V.s 			page 31


1223:Generated_Source\PSoC4/CyLib.c ****                 
1224:Generated_Source\PSoC4/CyLib.c ****                 while (0u == (CY_SYS_RCB_INTR_RCB_DONE & CY_SYS_RCB_INTR_REG))
1225:Generated_Source\PSoC4/CyLib.c ****                 {
1226:Generated_Source\PSoC4/CyLib.c ****                     /* Wait until RCB_DONE state */
1227:Generated_Source\PSoC4/CyLib.c ****                 }
1228:Generated_Source\PSoC4/CyLib.c ****                 
1229:Generated_Source\PSoC4/CyLib.c ****                 /* Clear Interrupt */
1230:Generated_Source\PSoC4/CyLib.c ****                 CY_SYS_RCB_INTR_REG = CY_SYS_RCB_INTR_CLEAR;
1231:Generated_Source\PSoC4/CyLib.c ****                 
1232:Generated_Source\PSoC4/CyLib.c ****                 if(0u != ((CY_SYS_RCB_INTR_RCB_DONE | CY_SYS_RCB_INTR_RCB_RX_FIFO_NOT_EMPTY) & intr
1233:Generated_Source\PSoC4/CyLib.c ****                 {
1234:Generated_Source\PSoC4/CyLib.c ****                     CY_SYS_BLESS_INTR_MASK_REG |= intrRegMaskStore;
1235:Generated_Source\PSoC4/CyLib.c ****                 }
1236:Generated_Source\PSoC4/CyLib.c ****                 
1237:Generated_Source\PSoC4/CyLib.c ****             }
1238:Generated_Source\PSoC4/CyLib.c ****         #else /* CY_IP_ECO_SRSSV2 || CY_IP_ECO_SRSSLT */
1239:Generated_Source\PSoC4/CyLib.c ****             CY_SYS_CLK_ECO_CONFIG_REG |= CY_SYS_CLK_ECO_CONFIG_ENABLE;
1240:Generated_Source\PSoC4/CyLib.c ****             CyDelayUs(CY_SYS_CLK_ECO_CONFIG_CLK_EN_TIMEOUT_US);
1241:Generated_Source\PSoC4/CyLib.c ****             CY_SYS_CLK_ECO_CONFIG_REG |= CY_SYS_CLK_ECO_CONFIG_CLK_EN;
1242:Generated_Source\PSoC4/CyLib.c ****         #endif /* (CY_IP_ECO_BLESS) */
1243:Generated_Source\PSoC4/CyLib.c **** 
1244:Generated_Source\PSoC4/CyLib.c ****         if(timeoutUs > 0u)
1245:Generated_Source\PSoC4/CyLib.c ****         {
1246:Generated_Source\PSoC4/CyLib.c ****             returnStatus = CYRET_TIMEOUT;
1247:Generated_Source\PSoC4/CyLib.c **** 
1248:Generated_Source\PSoC4/CyLib.c ****             for( ; timeoutUs > 0u; timeoutUs--)
1249:Generated_Source\PSoC4/CyLib.c ****             {
1250:Generated_Source\PSoC4/CyLib.c ****                 CyDelayUs(1u);
1251:Generated_Source\PSoC4/CyLib.c **** 
1252:Generated_Source\PSoC4/CyLib.c ****                 if(0u != CySysClkEcoReadStatus())
1253:Generated_Source\PSoC4/CyLib.c ****                 {
1254:Generated_Source\PSoC4/CyLib.c ****                     returnStatus = CYRET_SUCCESS;
1255:Generated_Source\PSoC4/CyLib.c ****                     break;
1256:Generated_Source\PSoC4/CyLib.c ****                 }
1257:Generated_Source\PSoC4/CyLib.c ****             }
1258:Generated_Source\PSoC4/CyLib.c **** 
1259:Generated_Source\PSoC4/CyLib.c ****         }
1260:Generated_Source\PSoC4/CyLib.c **** 
1261:Generated_Source\PSoC4/CyLib.c ****         return(returnStatus);
1262:Generated_Source\PSoC4/CyLib.c ****     }
1263:Generated_Source\PSoC4/CyLib.c **** 
1264:Generated_Source\PSoC4/CyLib.c **** 
1265:Generated_Source\PSoC4/CyLib.c ****     /*******************************************************************************
1266:Generated_Source\PSoC4/CyLib.c ****     * Function Name: CySysClkEcoStop
1267:Generated_Source\PSoC4/CyLib.c ****     ****************************************************************************//**
1268:Generated_Source\PSoC4/CyLib.c ****     *
1269:Generated_Source\PSoC4/CyLib.c ****     * Stops the megahertz crystal.
1270:Generated_Source\PSoC4/CyLib.c ****     *
1271:Generated_Source\PSoC4/CyLib.c ****     * If ECO is disabled when it is sourcing HFCLK, the CPU will halt. In addition,
1272:Generated_Source\PSoC4/CyLib.c ****     * for PSoC 4100 BLE / PSoC 4200 BLE devices, the BLE sub-system will stop
1273:Generated_Source\PSoC4/CyLib.c ****     * functioning.
1274:Generated_Source\PSoC4/CyLib.c ****     *
1275:Generated_Source\PSoC4/CyLib.c ****     *******************************************************************************/
1276:Generated_Source\PSoC4/CyLib.c ****     void CySysClkEcoStop(void)
1277:Generated_Source\PSoC4/CyLib.c ****     {
 479              		.loc 1 1277 0
 480              		.cfi_startproc
ARM GAS  C:\Users\Banni\AppData\Local\Temp\ccvFPZ8V.s 			page 32


 481              		@ args = 0, pretend = 0, frame = 0
 482              		@ frame_needed = 0, uses_anonymous_args = 0
 483              		@ link register save eliminated.
1278:Generated_Source\PSoC4/CyLib.c ****         #if (CY_IP_WCO_BLESS)
1279:Generated_Source\PSoC4/CyLib.c ****             /* Disable the RF oscillator band gap */
1280:Generated_Source\PSoC4/CyLib.c ****             CY_SYS_XTAL_BLESS_RF_CONFIG_REG &= (uint32) ~CY_SYS_XTAL_BLESS_RF_CONFIG_RF_ENABLE;
1281:Generated_Source\PSoC4/CyLib.c **** 
1282:Generated_Source\PSoC4/CyLib.c ****             /* Disable the Crystal */
1283:Generated_Source\PSoC4/CyLib.c ****             CY_SYS_XTAL_BLERD_DBUS_REG &= (uint32) ~CY_SYS_XTAL_BLERD_DBUS_XTAL_ENABLE;
1284:Generated_Source\PSoC4/CyLib.c ****         #elif (CY_IP_ECO_BLESSV3)
1285:Generated_Source\PSoC4/CyLib.c ****             CY_SYS_BLESS_MT_CFG_REG &= ~(CY_SYS_BLESS_MT_CFG_DPSLP_ECO_ON  <<  CYFLD_BLE_BLESS_DPSL
1286:Generated_Source\PSoC4/CyLib.c ****         #else
1287:Generated_Source\PSoC4/CyLib.c ****             CY_SYS_CLK_ECO_CONFIG_REG &= (uint32) ~(CY_SYS_CLK_ECO_CONFIG_ENABLE | CY_SYS_CLK_ECO_C
 484              		.loc 1 1287 0
 485 0000 024A     		ldr	r2, .L36
 486 0002 1168     		ldr	r1, [r2]
 487 0004 024B     		ldr	r3, .L36+4
 488 0006 0B40     		ands	r3, r1
 489 0008 1360     		str	r3, [r2]
1288:Generated_Source\PSoC4/CyLib.c ****         #endif /* (CY_IP_WCO_BLESS) */
1289:Generated_Source\PSoC4/CyLib.c ****     }
 490              		.loc 1 1289 0
 491              		@ sp needed
 492 000a 7047     		bx	lr
 493              	.L37:
 494              		.align	2
 495              	.L36:
 496 000c 08002F40 		.word	1076822024
 497 0010 FEFFFF7F 		.word	2147483646
 498              		.cfi_endproc
 499              	.LFE13:
 500              		.size	CySysClkEcoStop, .-CySysClkEcoStop
 501              		.section	.text.CySysClkEcoReadStatus,"ax",%progbits
 502              		.align	2
 503              		.global	CySysClkEcoReadStatus
 504              		.code	16
 505              		.thumb_func
 506              		.type	CySysClkEcoReadStatus, %function
 507              	CySysClkEcoReadStatus:
 508              	.LFB14:
1290:Generated_Source\PSoC4/CyLib.c **** 
1291:Generated_Source\PSoC4/CyLib.c **** 
1292:Generated_Source\PSoC4/CyLib.c ****     /*******************************************************************************
1293:Generated_Source\PSoC4/CyLib.c ****     * Function Name: CySysClkEcoReadStatus
1294:Generated_Source\PSoC4/CyLib.c ****     ****************************************************************************//**
1295:Generated_Source\PSoC4/CyLib.c ****     *
1296:Generated_Source\PSoC4/CyLib.c ****     * Reads the status bit for the megahertz crystal.
1297:Generated_Source\PSoC4/CyLib.c ****     *
1298:Generated_Source\PSoC4/CyLib.c ****     * For PSoC 4100 BLE / PSoC 4200 BLE devices, the status bit is the
1299:Generated_Source\PSoC4/CyLib.c ****     * XO_AMP_DETECT bit in FSM register.
1300:Generated_Source\PSoC4/CyLib.c ****     *
1301:Generated_Source\PSoC4/CyLib.c ****     * For PSoC 4200L / 4100S with ECO devices, the error status bit is the 
1302:Generated_Source\PSoC4/CyLib.c ****     * WATCHDOG_ERROR bit in ECO_STATUS register.
1303:Generated_Source\PSoC4/CyLib.c ****     *
1304:Generated_Source\PSoC4/CyLib.c ****     * \return PSoC 4100 BLE/PSoC 4200 BLE: Non-zero indicates that ECO output
1305:Generated_Source\PSoC4/CyLib.c ****     * reached 50 ppm and is oscillating in valid range.
1306:Generated_Source\PSoC4/CyLib.c ****     *
ARM GAS  C:\Users\Banni\AppData\Local\Temp\ccvFPZ8V.s 			page 33


1307:Generated_Source\PSoC4/CyLib.c ****     * \return PSoC 4200L / 4100S with ECO: Non-zero indicates that ECO is running.
1308:Generated_Source\PSoC4/CyLib.c ****     *
1309:Generated_Source\PSoC4/CyLib.c ****     *******************************************************************************/
1310:Generated_Source\PSoC4/CyLib.c ****     uint32 CySysClkEcoReadStatus(void)
1311:Generated_Source\PSoC4/CyLib.c ****     {
 509              		.loc 1 1311 0
 510              		.cfi_startproc
 511              		@ args = 0, pretend = 0, frame = 0
 512              		@ frame_needed = 0, uses_anonymous_args = 0
 513              		@ link register save eliminated.
1312:Generated_Source\PSoC4/CyLib.c ****         uint32 returnValue;
1313:Generated_Source\PSoC4/CyLib.c **** 
1314:Generated_Source\PSoC4/CyLib.c ****         #if (CY_IP_WCO_BLESS)
1315:Generated_Source\PSoC4/CyLib.c ****             returnValue = CY_SYS_XTAL_BLERD_FSM_REG & CY_SYS_XTAL_BLERD_FSM_XO_AMP_DETECT;
1316:Generated_Source\PSoC4/CyLib.c ****         #elif (CY_IP_ECO_BLESSV3)
1317:Generated_Source\PSoC4/CyLib.c ****             returnValue = (CY_SYS_BLESS_MT_STATUS_REG & CY_SYS_BLESS_MT_STATUS_CURR_STATE_MASK) >> 
1318:Generated_Source\PSoC4/CyLib.c **** 
1319:Generated_Source\PSoC4/CyLib.c ****             returnValue =  ((CY_SYS_BLESS_MT_STATUS_BLERD_IDLE == returnValue) || 
1320:Generated_Source\PSoC4/CyLib.c ****                             (CY_SYS_BLESS_MT_STATUS_SWITCH_EN  == returnValue) ||
1321:Generated_Source\PSoC4/CyLib.c ****                             (CY_SYS_BLESS_MT_STATUS_ACTIVE  ==  returnValue) ||
1322:Generated_Source\PSoC4/CyLib.c ****                             (CY_SYS_BLESS_MT_STATUS_ISOLATE == returnValue));
1323:Generated_Source\PSoC4/CyLib.c ****         #else
1324:Generated_Source\PSoC4/CyLib.c ****             returnValue = (0u != (CY_SYS_CLK_ECO_STATUS_REG & CY_SYS_CLK_ECO_STATUS_WATCHDOG_ERROR)
 514              		.loc 1 1324 0
 515 0000 034B     		ldr	r3, .L39
 516 0002 1B68     		ldr	r3, [r3]
 517 0004 0120     		movs	r0, #1
 518 0006 1840     		ands	r0, r3
 519 0008 4342     		rsbs	r3, r0, #0
 520 000a 5841     		adcs	r0, r0, r3
 521 000c C0B2     		uxtb	r0, r0
 522              	.LVL33:
1325:Generated_Source\PSoC4/CyLib.c ****         #endif /* (CY_IP_WCO_BLESS) */
1326:Generated_Source\PSoC4/CyLib.c **** 
1327:Generated_Source\PSoC4/CyLib.c ****         return (returnValue);
1328:Generated_Source\PSoC4/CyLib.c ****     }
 523              		.loc 1 1328 0
 524              		@ sp needed
 525 000e 7047     		bx	lr
 526              	.L40:
 527              		.align	2
 528              	.L39:
 529 0010 0C002F40 		.word	1076822028
 530              		.cfi_endproc
 531              	.LFE14:
 532              		.size	CySysClkEcoReadStatus, .-CySysClkEcoReadStatus
 533              		.section	.text.CySysClkConfigureEcoTrim,"ax",%progbits
 534              		.align	2
 535              		.global	CySysClkConfigureEcoTrim
 536              		.code	16
 537              		.thumb_func
 538              		.type	CySysClkConfigureEcoTrim, %function
 539              	CySysClkConfigureEcoTrim:
 540              	.LFB15:
1329:Generated_Source\PSoC4/CyLib.c **** 
1330:Generated_Source\PSoC4/CyLib.c ****     #if (CY_IP_ECO_BLESS || CY_IP_ECO_BLESSV3)
1331:Generated_Source\PSoC4/CyLib.c ****         /*******************************************************************************
ARM GAS  C:\Users\Banni\AppData\Local\Temp\ccvFPZ8V.s 			page 34


1332:Generated_Source\PSoC4/CyLib.c ****         * Function Name: CySysClkWriteEcoDiv
1333:Generated_Source\PSoC4/CyLib.c ****         ****************************************************************************//**
1334:Generated_Source\PSoC4/CyLib.c ****         *
1335:Generated_Source\PSoC4/CyLib.c ****         * Selects value for the ECO divider.
1336:Generated_Source\PSoC4/CyLib.c ****         *
1337:Generated_Source\PSoC4/CyLib.c ****         * The ECO must not be the HFCLK clock source when this function is called.
1338:Generated_Source\PSoC4/CyLib.c ****         * The HFCLK source can be changed to the other clock source by call to the
1339:Generated_Source\PSoC4/CyLib.c ****         * CySysClkWriteHfclkDirect() function. If the ECO sources the HFCLK this
1340:Generated_Source\PSoC4/CyLib.c ****         * function will not have any effect if compiler in release mode, and halt the
1341:Generated_Source\PSoC4/CyLib.c ****         * CPU when compiler in debug mode.
1342:Generated_Source\PSoC4/CyLib.c ****         *
1343:Generated_Source\PSoC4/CyLib.c ****         * If the SYSCLK clock frequency increases during the device operation, call
1344:Generated_Source\PSoC4/CyLib.c ****         * CySysFlashSetWaitCycles() with the appropriate parameter to adjust the number
1345:Generated_Source\PSoC4/CyLib.c ****         * of clock cycles the cache will wait before sampling data comes back from
1346:Generated_Source\PSoC4/CyLib.c ****         * Flash. If the SYSCLK clock frequency decreases, you can call
1347:Generated_Source\PSoC4/CyLib.c ****         * CySysFlashSetWaitCycles() to improve the CPU performance. See
1348:Generated_Source\PSoC4/CyLib.c ****         * CySysFlashSetWaitCycles() description for more information.
1349:Generated_Source\PSoC4/CyLib.c ****         *
1350:Generated_Source\PSoC4/CyLib.c ****         * \param divider Power of 2 divider selection.
1351:Generated_Source\PSoC4/CyLib.c ****         * - \ref CY_SYS_CLK_ECO_DIV1
1352:Generated_Source\PSoC4/CyLib.c ****         * - \ref CY_SYS_CLK_ECO_DIV2
1353:Generated_Source\PSoC4/CyLib.c ****         * - \ref CY_SYS_CLK_ECO_DIV4
1354:Generated_Source\PSoC4/CyLib.c ****         * - \ref CY_SYS_CLK_ECO_DIV8
1355:Generated_Source\PSoC4/CyLib.c ****         *
1356:Generated_Source\PSoC4/CyLib.c ****         *******************************************************************************/
1357:Generated_Source\PSoC4/CyLib.c ****         void CySysClkWriteEcoDiv(uint32 divider)
1358:Generated_Source\PSoC4/CyLib.c ****         {
1359:Generated_Source\PSoC4/CyLib.c ****             uint8  interruptState;
1360:Generated_Source\PSoC4/CyLib.c **** 
1361:Generated_Source\PSoC4/CyLib.c ****             if (CY_SYS_CLK_HFCLK_ECO != (CY_SYS_CLK_SELECT_REG & CY_SYS_CLK_SELECT_DIRECT_SEL_MASK)
1362:Generated_Source\PSoC4/CyLib.c ****             {
1363:Generated_Source\PSoC4/CyLib.c ****                 interruptState = CyEnterCriticalSection();
1364:Generated_Source\PSoC4/CyLib.c **** 
1365:Generated_Source\PSoC4/CyLib.c ****                 CY_SYS_CLK_XTAL_CLK_DIV_CONFIG_REG =  (divider & CY_SYS_CLK_XTAL_CLK_DIV_MASK) |
1366:Generated_Source\PSoC4/CyLib.c ****                                                       (CY_SYS_CLK_XTAL_CLK_DIV_CONFIG_REG & ((uint3
1367:Generated_Source\PSoC4/CyLib.c **** 
1368:Generated_Source\PSoC4/CyLib.c ****                 CyExitCriticalSection(interruptState);
1369:Generated_Source\PSoC4/CyLib.c ****             }
1370:Generated_Source\PSoC4/CyLib.c ****             else
1371:Generated_Source\PSoC4/CyLib.c ****             {
1372:Generated_Source\PSoC4/CyLib.c ****                 /* Halt CPU in debug mode if ECO sources HFCLK */
1373:Generated_Source\PSoC4/CyLib.c ****                 CYASSERT(0u != 0u);
1374:Generated_Source\PSoC4/CyLib.c ****             }
1375:Generated_Source\PSoC4/CyLib.c ****         }
1376:Generated_Source\PSoC4/CyLib.c **** 
1377:Generated_Source\PSoC4/CyLib.c ****     #else
1378:Generated_Source\PSoC4/CyLib.c **** 
1379:Generated_Source\PSoC4/CyLib.c ****         /*******************************************************************************
1380:Generated_Source\PSoC4/CyLib.c ****         * Function Name: CySysClkConfigureEcoTrim
1381:Generated_Source\PSoC4/CyLib.c ****         ****************************************************************************//**
1382:Generated_Source\PSoC4/CyLib.c ****         *
1383:Generated_Source\PSoC4/CyLib.c ****         * Selects trim setting values for ECO. This API is available only for PSoC
1384:Generated_Source\PSoC4/CyLib.c ****         * 4200L / 4100S with ECO devices only.
1385:Generated_Source\PSoC4/CyLib.c ****         *
1386:Generated_Source\PSoC4/CyLib.c ****         * The following parameters can be trimmed for ECO. The affected registers are
1387:Generated_Source\PSoC4/CyLib.c ****         * ECO_TRIM0 and ECO_TRIM1.
1388:Generated_Source\PSoC4/CyLib.c ****         *
ARM GAS  C:\Users\Banni\AppData\Local\Temp\ccvFPZ8V.s 			page 35


1389:Generated_Source\PSoC4/CyLib.c ****         * Watchdog trim - This bit field sets the error threshold below the steady
1390:Generated_Source\PSoC4/CyLib.c ****         * state amplitude level.
1391:Generated_Source\PSoC4/CyLib.c ****         *
1392:Generated_Source\PSoC4/CyLib.c ****         * Amplitude trim - This bit field is to set the crystal drive level when
1393:Generated_Source\PSoC4/CyLib.c ****         * ECO_CONFIG.AGC_EN = 1. WARNING: use care when setting this field because
1394:Generated_Source\PSoC4/CyLib.c ****         * driving a crystal beyond its rated limit can permanently damage the crystal.
1395:Generated_Source\PSoC4/CyLib.c ****         *
1396:Generated_Source\PSoC4/CyLib.c ****         * Filter frequency trim - This bit field sets LPF frequency trim and affects
1397:Generated_Source\PSoC4/CyLib.c ****         * the 3rd harmonic content.
1398:Generated_Source\PSoC4/CyLib.c ****         *
1399:Generated_Source\PSoC4/CyLib.c ****         * Feedback resistor trim - This bit field sets the feedback resistor trim and
1400:Generated_Source\PSoC4/CyLib.c ****         * impacts the oscillation amplitude.
1401:Generated_Source\PSoC4/CyLib.c ****         *
1402:Generated_Source\PSoC4/CyLib.c ****         * Amplifier gain trim - This bit field sets the amplifier gain trim and affects
1403:Generated_Source\PSoC4/CyLib.c ****         * the startup time of the crystal.
1404:Generated_Source\PSoC4/CyLib.c ****         *
1405:Generated_Source\PSoC4/CyLib.c ****         * Use care when setting the amplitude trim field because driving a crystal
1406:Generated_Source\PSoC4/CyLib.c ****         * beyond its rated limit can permanently damage the crystal.
1407:Generated_Source\PSoC4/CyLib.c ****         *
1408:Generated_Source\PSoC4/CyLib.c ****         * \param wDTrim: Watchdog trim
1409:Generated_Source\PSoC4/CyLib.c ****         * - \ref CY_SYS_CLK_ECO_WDTRIM0      Error threshold is 0.05 V
1410:Generated_Source\PSoC4/CyLib.c ****         * - \ref CY_SYS_CLK_ECO_WDTRIM1      Error threshold is 0.10 V
1411:Generated_Source\PSoC4/CyLib.c ****         * - \ref CY_SYS_CLK_ECO_WDTRIM2      Error threshold is 0.15 V
1412:Generated_Source\PSoC4/CyLib.c ****         * - \ref CY_SYS_CLK_ECO_WDTRIM3      Error threshold is 0.20 V
1413:Generated_Source\PSoC4/CyLib.c ****         *
1414:Generated_Source\PSoC4/CyLib.c ****         * \param aTrim: Amplitude trim
1415:Generated_Source\PSoC4/CyLib.c ****         * - \ref CY_SYS_CLK_ECO_ATRIM0       Amplitude is 0.3 Vpp
1416:Generated_Source\PSoC4/CyLib.c ****         * - \ref CY_SYS_CLK_ECO_ATRIM1       Amplitude is 0.4 Vpp
1417:Generated_Source\PSoC4/CyLib.c ****         * - \ref CY_SYS_CLK_ECO_ATRIM2       Amplitude is 0.5 Vpp
1418:Generated_Source\PSoC4/CyLib.c ****         * - \ref CY_SYS_CLK_ECO_ATRIM3       Amplitude is 0.6 Vpp
1419:Generated_Source\PSoC4/CyLib.c ****         * - \ref CY_SYS_CLK_ECO_ATRIM4       Amplitude is 0.7 Vpp
1420:Generated_Source\PSoC4/CyLib.c ****         * - \ref CY_SYS_CLK_ECO_ATRIM5       Amplitude is 0.8 Vpp
1421:Generated_Source\PSoC4/CyLib.c ****         * - \ref CY_SYS_CLK_ECO_ATRIM6       Amplitude is 0.9 Vpp
1422:Generated_Source\PSoC4/CyLib.c ****         * - \ref CY_SYS_CLK_ECO_ATRIM7       Amplitude is 1.0 Vpp
1423:Generated_Source\PSoC4/CyLib.c ****         *
1424:Generated_Source\PSoC4/CyLib.c ****         * \param fTrim: Filter frequency trim
1425:Generated_Source\PSoC4/CyLib.c ****         * - \ref CY_SYS_CLK_ECO_FTRIM0       Crystal frequency > 30 MHz
1426:Generated_Source\PSoC4/CyLib.c ****         * - \ref CY_SYS_CLK_ECO_FTRIM1       24 MHz < Crystal frequency <= 30 MHz
1427:Generated_Source\PSoC4/CyLib.c ****         * - \ref CY_SYS_CLK_ECO_FTRIM2       17 MHz < Crystal frequency <= 24 MHz
1428:Generated_Source\PSoC4/CyLib.c ****         * - \ref CY_SYS_CLK_ECO_FTRIM3       Crystal frequency <= 17 MHz
1429:Generated_Source\PSoC4/CyLib.c ****         *
1430:Generated_Source\PSoC4/CyLib.c ****         * \param rTrim: Feedback resistor trim
1431:Generated_Source\PSoC4/CyLib.c ****         * - \ref CY_SYS_CLK_ECO_RTRIM0       Crystal frequency > 30 MHz
1432:Generated_Source\PSoC4/CyLib.c ****         * - \ref CY_SYS_CLK_ECO_RTRIM1       24 MHz < Crystal frequency <= 30 MHz
1433:Generated_Source\PSoC4/CyLib.c ****         * - \ref CY_SYS_CLK_ECO_RTRIM2       17 MHz < Crystal frequency <= 24 MHz
1434:Generated_Source\PSoC4/CyLib.c ****         * - \ref CY_SYS_CLK_ECO_RTRIM3       Crystal frequency <= 17 MHz
1435:Generated_Source\PSoC4/CyLib.c ****         *
1436:Generated_Source\PSoC4/CyLib.c ****         * \param gTrim: Amplifier gain trim. Calculate the minimum required gm
1437:Generated_Source\PSoC4/CyLib.c ****         * (trans-conductance value). Divide the calculated gm value by 4.5 to
1438:Generated_Source\PSoC4/CyLib.c ****         * obtain an integer value 'result'. For more information please refer
1439:Generated_Source\PSoC4/CyLib.c ****         * to the device TRM.
1440:Generated_Source\PSoC4/CyLib.c ****         * - \ref CY_SYS_CLK_ECO_GTRIM0       If result = 1
1441:Generated_Source\PSoC4/CyLib.c ****         * - \ref CY_SYS_CLK_ECO_GTRIM1       If result = 0
1442:Generated_Source\PSoC4/CyLib.c ****         * - \ref CY_SYS_CLK_ECO_GTRIM2       If result = 2
1443:Generated_Source\PSoC4/CyLib.c ****         * - \ref CY_SYS_CLK_ECO_GTRIM2       If result = 3
1444:Generated_Source\PSoC4/CyLib.c ****         *
1445:Generated_Source\PSoC4/CyLib.c ****         *******************************************************************************/
ARM GAS  C:\Users\Banni\AppData\Local\Temp\ccvFPZ8V.s 			page 36


1446:Generated_Source\PSoC4/CyLib.c ****         void CySysClkConfigureEcoTrim(uint32 wDTrim, uint32 aTrim, uint32 fTrim, uint32 rTrim, uint
1447:Generated_Source\PSoC4/CyLib.c ****         {
 541              		.loc 1 1447 0
 542              		.cfi_startproc
 543              		@ args = 4, pretend = 0, frame = 0
 544              		@ frame_needed = 0, uses_anonymous_args = 0
 545              	.LVL34:
 546 0000 F0B5     		push	{r4, r5, r6, r7, lr}
 547              		.cfi_def_cfa_offset 20
 548              		.cfi_offset 4, -20
 549              		.cfi_offset 5, -16
 550              		.cfi_offset 6, -12
 551              		.cfi_offset 7, -8
 552              		.cfi_offset 14, -4
 553 0002 4746     		mov	r7, r8
 554 0004 80B4     		push	{r7}
 555              		.cfi_def_cfa_offset 24
 556              		.cfi_offset 8, -24
 557 0006 0700     		movs	r7, r0
 558 0008 0D00     		movs	r5, r1
 559 000a 1600     		movs	r6, r2
 560 000c 9846     		mov	r8, r3
1448:Generated_Source\PSoC4/CyLib.c ****             uint8  interruptState;
1449:Generated_Source\PSoC4/CyLib.c ****             uint32 regTmp;
1450:Generated_Source\PSoC4/CyLib.c **** 
1451:Generated_Source\PSoC4/CyLib.c ****             interruptState = CyEnterCriticalSection();
 561              		.loc 1 1451 0
 562 000e FFF7FEFF 		bl	CyEnterCriticalSection
 563              	.LVL35:
1452:Generated_Source\PSoC4/CyLib.c **** 
1453:Generated_Source\PSoC4/CyLib.c ****             regTmp  = CY_SYS_CLK_ECO_TRIM0_REG & ~(CY_SYS_CLK_ECO_TRIM0_WDTRIM_MASK | CY_SYS_CLK_EC
 564              		.loc 1 1453 0
 565 0012 114A     		ldr	r2, .L42
 566 0014 1368     		ldr	r3, [r2]
 567 0016 1F21     		movs	r1, #31
 568 0018 8B43     		bics	r3, r1
 569              	.LVL36:
1454:Generated_Source\PSoC4/CyLib.c ****             regTmp |= ((uint32) (wDTrim << CY_SYS_CLK_ECO_TRIM0_WDTRIM_SHIFT) & CY_SYS_CLK_ECO_TRIM
 570              		.loc 1 1454 0
 571 001a 0324     		movs	r4, #3
 572 001c 2740     		ands	r7, r4
 573              	.LVL37:
 574 001e 1F43     		orrs	r7, r3
 575              	.LVL38:
1455:Generated_Source\PSoC4/CyLib.c ****             regTmp |= ((uint32) (aTrim << CY_SYS_CLK_ECO_TRIM0_ATRIM_SHIFT) & CY_SYS_CLK_ECO_TRIM0_
 576              		.loc 1 1455 0
 577 0020 A900     		lsls	r1, r5, #2
 578 0022 1C25     		movs	r5, #28
 579              	.LVL39:
 580 0024 0D40     		ands	r5, r1
 581 0026 3D43     		orrs	r5, r7
 582              	.LVL40:
1456:Generated_Source\PSoC4/CyLib.c ****             CY_SYS_CLK_ECO_TRIM0_REG = regTmp;
 583              		.loc 1 1456 0
 584 0028 1560     		str	r5, [r2]
1457:Generated_Source\PSoC4/CyLib.c **** 
1458:Generated_Source\PSoC4/CyLib.c ****             regTmp  = CY_SYS_CLK_ECO_TRIM1_REG & ~(CY_SYS_CLK_ECO_TRIM1_FTRIM_MASK |
ARM GAS  C:\Users\Banni\AppData\Local\Temp\ccvFPZ8V.s 			page 37


 585              		.loc 1 1458 0
 586 002a 0C4A     		ldr	r2, .L42+4
 587 002c 1368     		ldr	r3, [r2]
 588 002e 3F21     		movs	r1, #63
 589 0030 8B43     		bics	r3, r1
 590              	.LVL41:
1459:Generated_Source\PSoC4/CyLib.c ****                                                    CY_SYS_CLK_ECO_TRIM1_RTRIM_MASK |
1460:Generated_Source\PSoC4/CyLib.c ****                                                    CY_SYS_CLK_ECO_TRIM1_GTRIM_MASK);
1461:Generated_Source\PSoC4/CyLib.c ****             regTmp |= ((uint32) (fTrim << CY_SYS_CLK_ECO_TRIM1_FTRIM_SHIFT) & CY_SYS_CLK_ECO_TRIM1_
 591              		.loc 1 1461 0
 592 0032 2640     		ands	r6, r4
 593              	.LVL42:
 594 0034 3343     		orrs	r3, r6
 595              	.LVL43:
1462:Generated_Source\PSoC4/CyLib.c ****             regTmp |= ((uint32) (rTrim << CY_SYS_CLK_ECO_TRIM1_RTRIM_SHIFT) & CY_SYS_CLK_ECO_TRIM1_
 596              		.loc 1 1462 0
 597 0036 4146     		mov	r1, r8
 598 0038 8900     		lsls	r1, r1, #2
 599 003a 0934     		adds	r4, r4, #9
 600 003c 0C40     		ands	r4, r1
 601 003e 1C43     		orrs	r4, r3
 602              	.LVL44:
1463:Generated_Source\PSoC4/CyLib.c ****             regTmp |= ((uint32) (gTrim << CY_SYS_CLK_ECO_TRIM1_GTRIM_SHIFT) & CY_SYS_CLK_ECO_TRIM1_
 603              		.loc 1 1463 0
 604 0040 069B     		ldr	r3, [sp, #24]
 605 0042 1901     		lsls	r1, r3, #4
 606 0044 3023     		movs	r3, #48
 607 0046 1940     		ands	r1, r3
 608 0048 2300     		movs	r3, r4
 609 004a 0B43     		orrs	r3, r1
 610              	.LVL45:
1464:Generated_Source\PSoC4/CyLib.c **** 
1465:Generated_Source\PSoC4/CyLib.c ****             CY_SYS_CLK_ECO_TRIM1_REG = regTmp;
 611              		.loc 1 1465 0
 612 004c 1360     		str	r3, [r2]
1466:Generated_Source\PSoC4/CyLib.c **** 
1467:Generated_Source\PSoC4/CyLib.c ****             CyExitCriticalSection(interruptState);
 613              		.loc 1 1467 0
 614 004e FFF7FEFF 		bl	CyExitCriticalSection
 615              	.LVL46:
1468:Generated_Source\PSoC4/CyLib.c ****         }
 616              		.loc 1 1468 0
 617              		@ sp needed
 618              	.LVL47:
 619 0052 04BC     		pop	{r2}
 620 0054 9046     		mov	r8, r2
 621 0056 F0BD     		pop	{r4, r5, r6, r7, pc}
 622              	.L43:
 623              		.align	2
 624              	.L42:
 625 0058 00FF2F40 		.word	1076887296
 626 005c 04FF2F40 		.word	1076887300
 627              		.cfi_endproc
 628              	.LFE15:
 629              		.size	CySysClkConfigureEcoTrim, .-CySysClkConfigureEcoTrim
 630              		.global	__aeabi_uidiv
 631              		.section	.text.CySysClkConfigureEcoDrive,"ax",%progbits
ARM GAS  C:\Users\Banni\AppData\Local\Temp\ccvFPZ8V.s 			page 38


 632              		.align	2
 633              		.global	CySysClkConfigureEcoDrive
 634              		.code	16
 635              		.thumb_func
 636              		.type	CySysClkConfigureEcoDrive, %function
 637              	CySysClkConfigureEcoDrive:
 638              	.LFB16:
1469:Generated_Source\PSoC4/CyLib.c **** 
1470:Generated_Source\PSoC4/CyLib.c **** 
1471:Generated_Source\PSoC4/CyLib.c ****         /*******************************************************************************
1472:Generated_Source\PSoC4/CyLib.c ****         * Function Name: CySysClkConfigureEcoDrive
1473:Generated_Source\PSoC4/CyLib.c ****         ****************************************************************************//**
1474:Generated_Source\PSoC4/CyLib.c ****         *
1475:Generated_Source\PSoC4/CyLib.c ****         * Selects trim setting values for ECO based on crystal parameters. Use care
1476:Generated_Source\PSoC4/CyLib.c ****         * when setting the driveLevel parameter because driving a crystal beyond its
1477:Generated_Source\PSoC4/CyLib.c ****         * rated limit can permanently damage the crystal.
1478:Generated_Source\PSoC4/CyLib.c ****         *
1479:Generated_Source\PSoC4/CyLib.c ****         * This API is available only for PSoC 4200L / 4100S with ECO devices only.
1480:Generated_Source\PSoC4/CyLib.c ****         *
1481:Generated_Source\PSoC4/CyLib.c ****         * \param freq Frequency of the crystal in kHz.
1482:Generated_Source\PSoC4/CyLib.c ****         * \param cLoad Crystal load capacitance in pF.
1483:Generated_Source\PSoC4/CyLib.c ****         * \param esr Equivalent series resistance of the crystal in ohm.
1484:Generated_Source\PSoC4/CyLib.c ****         *  maxAmplitude: maximum amplitude level in mV. Calculate as
1485:Generated_Source\PSoC4/CyLib.c ****         *  ((sqrt(driveLevel in uW / 2 / esr))/(3.14 * freq * cLoad)) * 10^9.
1486:Generated_Source\PSoC4/CyLib.c ****         *
1487:Generated_Source\PSoC4/CyLib.c ****         *  The Automatic Gain Control (AGC) is disabled when the specified maximum
1488:Generated_Source\PSoC4/CyLib.c ****         *  amplitude level equals or above 2. In this case the amplitude is not
1489:Generated_Source\PSoC4/CyLib.c ****         *  explicitly controlled and will grow until it saturates to the supply rail
1490:Generated_Source\PSoC4/CyLib.c ****         *  (1.8V nom). WARNING: use care when disabling AGC because driving a crystal
1491:Generated_Source\PSoC4/CyLib.c ****         *  beyond its rated limit can permanently damage the crystal.
1492:Generated_Source\PSoC4/CyLib.c ****         *
1493:Generated_Source\PSoC4/CyLib.c ****         * \return \ref CYRET_SUCCESS ECO configuration completed successfully.
1494:Generated_Source\PSoC4/CyLib.c ****         * \return \ref CYRET_BAD_PARAM One or more invalid parameters.
1495:Generated_Source\PSoC4/CyLib.c ****         *
1496:Generated_Source\PSoC4/CyLib.c ****         *******************************************************************************/
1497:Generated_Source\PSoC4/CyLib.c ****         cystatus CySysClkConfigureEcoDrive(uint32 freq, uint32 cLoad, uint32 esr, uint32 maxAmplitu
1498:Generated_Source\PSoC4/CyLib.c ****         {
 639              		.loc 1 1498 0
 640              		.cfi_startproc
 641              		@ args = 0, pretend = 0, frame = 8
 642              		@ frame_needed = 0, uses_anonymous_args = 0
 643              	.LVL48:
 644 0000 F0B5     		push	{r4, r5, r6, r7, lr}
 645              		.cfi_def_cfa_offset 20
 646              		.cfi_offset 4, -20
 647              		.cfi_offset 5, -16
 648              		.cfi_offset 6, -12
 649              		.cfi_offset 7, -8
 650              		.cfi_offset 14, -4
 651 0002 5746     		mov	r7, r10
 652 0004 80B4     		push	{r7}
 653              		.cfi_def_cfa_offset 24
 654              		.cfi_offset 10, -24
 655 0006 84B0     		sub	sp, sp, #16
 656              		.cfi_def_cfa_offset 40
 657 0008 0600     		movs	r6, r0
 658 000a 0C00     		movs	r4, r1
ARM GAS  C:\Users\Banni\AppData\Local\Temp\ccvFPZ8V.s 			page 39


 659 000c 1500     		movs	r5, r2
 660 000e 1F00     		movs	r7, r3
 661              	.LVL49:
1499:Generated_Source\PSoC4/CyLib.c ****             cystatus returnStatus = CYRET_SUCCESS;
1500:Generated_Source\PSoC4/CyLib.c **** 
1501:Generated_Source\PSoC4/CyLib.c ****             uint32 wDTrim;
1502:Generated_Source\PSoC4/CyLib.c ****             uint32 aTrim;
1503:Generated_Source\PSoC4/CyLib.c ****             uint32 fTrim;
1504:Generated_Source\PSoC4/CyLib.c ****             uint32 rTrim;
1505:Generated_Source\PSoC4/CyLib.c ****             uint32 gTrim;
1506:Generated_Source\PSoC4/CyLib.c **** 
1507:Generated_Source\PSoC4/CyLib.c ****             uint32 gmMin;
1508:Generated_Source\PSoC4/CyLib.c **** 
1509:Generated_Source\PSoC4/CyLib.c **** 
1510:Generated_Source\PSoC4/CyLib.c ****             if ((maxAmplitude < CY_SYS_CLK_ECO_MAX_AMPL_MIN_mV) ||
 662              		.loc 1 1510 0
 663 0010 F423     		movs	r3, #244
 664              	.LVL50:
 665 0012 FF33     		adds	r3, r3, #255
 666 0014 9F42     		cmp	r7, r3
 667 0016 00D8     		bhi	.LCB553
 668 0018 86E0     		b	.L51	@long jump
 669              	.LCB553:
 670              		.loc 1 1510 0 is_stmt 0 discriminator 1
 671 001a 484B     		ldr	r3, .L67
 672 001c 9842     		cmp	r0, r3
 673 001e 00D8     		bhi	.LCB556
 674 0020 84E0     		b	.L52	@long jump
 675              	.LCB556:
1511:Generated_Source\PSoC4/CyLib.c ****                 (freq < CY_SYS_CLK_ECO_FREQ_KHZ_MIN) || (freq > CY_SYS_CLK_ECO_FREQ_KHZ_MAX))
 676              		.loc 1 1511 0 is_stmt 1
 677 0022 474B     		ldr	r3, .L67+4
 678 0024 9842     		cmp	r0, r3
 679 0026 00D9     		bls	.LCB559
 680 0028 82E0     		b	.L53	@long jump
 681              	.LCB559:
1512:Generated_Source\PSoC4/CyLib.c ****             {
1513:Generated_Source\PSoC4/CyLib.c ****                 returnStatus = CYRET_BAD_PARAM;
1514:Generated_Source\PSoC4/CyLib.c ****             }
1515:Generated_Source\PSoC4/CyLib.c ****             else
1516:Generated_Source\PSoC4/CyLib.c ****             {
1517:Generated_Source\PSoC4/CyLib.c ****                 /* Calculate amplitude trim */
1518:Generated_Source\PSoC4/CyLib.c ****                 aTrim = (maxAmplitude < CY_SYS_CLK_ECO_TRIM_BOUNDARY) ? ((maxAmplitude/100u) - 4u) 
1519:Generated_Source\PSoC4/CyLib.c **** 
1520:Generated_Source\PSoC4/CyLib.c ****                 if (maxAmplitude < CY_SYS_CLK_ECO_AMPL_FOR_ATRIM0)
 682              		.loc 1 1520 0 discriminator 4
 683 002a 464B     		ldr	r3, .L67+8
 684 002c 9F42     		cmp	r7, r3
 685 002e 14D9     		bls	.L54
1521:Generated_Source\PSoC4/CyLib.c ****                 {
1522:Generated_Source\PSoC4/CyLib.c ****                     aTrim = CY_SYS_CLK_ECO_ATRIM0;
1523:Generated_Source\PSoC4/CyLib.c ****                 }
1524:Generated_Source\PSoC4/CyLib.c ****                 else if (maxAmplitude < CY_SYS_CLK_ECO_AMPL_FOR_ATRIM1)
 686              		.loc 1 1524 0
 687 0030 454B     		ldr	r3, .L67+12
 688 0032 9F42     		cmp	r7, r3
 689 0034 14D9     		bls	.L55
ARM GAS  C:\Users\Banni\AppData\Local\Temp\ccvFPZ8V.s 			page 40


1525:Generated_Source\PSoC4/CyLib.c ****                 {
1526:Generated_Source\PSoC4/CyLib.c ****                     aTrim = CY_SYS_CLK_ECO_ATRIM1;
1527:Generated_Source\PSoC4/CyLib.c ****                 }
1528:Generated_Source\PSoC4/CyLib.c ****                 else if (maxAmplitude < CY_SYS_CLK_ECO_AMPL_FOR_ATRIM2)
 690              		.loc 1 1528 0
 691 0036 454B     		ldr	r3, .L67+16
 692 0038 9F42     		cmp	r7, r3
 693 003a 14D9     		bls	.L56
1529:Generated_Source\PSoC4/CyLib.c ****                 {
1530:Generated_Source\PSoC4/CyLib.c ****                     aTrim = CY_SYS_CLK_ECO_ATRIM2;
1531:Generated_Source\PSoC4/CyLib.c ****                 }
1532:Generated_Source\PSoC4/CyLib.c ****                 else if (maxAmplitude < CY_SYS_CLK_ECO_AMPL_FOR_ATRIM3)
 694              		.loc 1 1532 0
 695 003c 444B     		ldr	r3, .L67+20
 696 003e 9F42     		cmp	r7, r3
 697 0040 14D9     		bls	.L57
1533:Generated_Source\PSoC4/CyLib.c ****                 {
1534:Generated_Source\PSoC4/CyLib.c ****                     aTrim = CY_SYS_CLK_ECO_ATRIM3;
1535:Generated_Source\PSoC4/CyLib.c ****                 }
1536:Generated_Source\PSoC4/CyLib.c ****                 else if (maxAmplitude < CY_SYS_CLK_ECO_AMPL_FOR_ATRIM4)
 698              		.loc 1 1536 0
 699 0042 7D33     		adds	r3, r3, #125
 700 0044 9F42     		cmp	r7, r3
 701 0046 14D9     		bls	.L58
1537:Generated_Source\PSoC4/CyLib.c ****                 {
1538:Generated_Source\PSoC4/CyLib.c ****                     aTrim = CY_SYS_CLK_ECO_ATRIM4;
1539:Generated_Source\PSoC4/CyLib.c ****                 }
1540:Generated_Source\PSoC4/CyLib.c ****                 else if (maxAmplitude < CY_SYS_CLK_ECO_AMPL_FOR_ATRIM5)
 702              		.loc 1 1540 0
 703 0048 424B     		ldr	r3, .L67+24
 704 004a 9F42     		cmp	r7, r3
 705 004c 14D9     		bls	.L59
1541:Generated_Source\PSoC4/CyLib.c ****                 {
1542:Generated_Source\PSoC4/CyLib.c ****                     aTrim = CY_SYS_CLK_ECO_ATRIM5;
1543:Generated_Source\PSoC4/CyLib.c ****                 }
1544:Generated_Source\PSoC4/CyLib.c ****                 else if (maxAmplitude < CY_SYS_CLK_ECO_AMPL_FOR_ATRIM6)
 706              		.loc 1 1544 0
 707 004e 424B     		ldr	r3, .L67+28
 708 0050 9F42     		cmp	r7, r3
 709 0052 14D8     		bhi	.L60
1545:Generated_Source\PSoC4/CyLib.c ****                 {
1546:Generated_Source\PSoC4/CyLib.c ****                     aTrim = CY_SYS_CLK_ECO_ATRIM6;
 710              		.loc 1 1546 0
 711 0054 0623     		movs	r3, #6
 712 0056 0393     		str	r3, [sp, #12]
 713 0058 13E0     		b	.L46
 714              	.L54:
1522:Generated_Source\PSoC4/CyLib.c ****                 }
 715              		.loc 1 1522 0
 716 005a 0023     		movs	r3, #0
 717 005c 0393     		str	r3, [sp, #12]
 718 005e 10E0     		b	.L46
 719              	.L55:
1526:Generated_Source\PSoC4/CyLib.c ****                 }
 720              		.loc 1 1526 0
 721 0060 0123     		movs	r3, #1
 722 0062 0393     		str	r3, [sp, #12]
ARM GAS  C:\Users\Banni\AppData\Local\Temp\ccvFPZ8V.s 			page 41


 723 0064 0DE0     		b	.L46
 724              	.L56:
1530:Generated_Source\PSoC4/CyLib.c ****                 }
 725              		.loc 1 1530 0
 726 0066 0223     		movs	r3, #2
 727 0068 0393     		str	r3, [sp, #12]
 728 006a 0AE0     		b	.L46
 729              	.L57:
1534:Generated_Source\PSoC4/CyLib.c ****                 }
 730              		.loc 1 1534 0
 731 006c 0323     		movs	r3, #3
 732 006e 0393     		str	r3, [sp, #12]
 733 0070 07E0     		b	.L46
 734              	.L58:
1538:Generated_Source\PSoC4/CyLib.c ****                 }
 735              		.loc 1 1538 0
 736 0072 0423     		movs	r3, #4
 737 0074 0393     		str	r3, [sp, #12]
 738 0076 04E0     		b	.L46
 739              	.L59:
1542:Generated_Source\PSoC4/CyLib.c ****                 }
 740              		.loc 1 1542 0
 741 0078 0523     		movs	r3, #5
 742 007a 0393     		str	r3, [sp, #12]
 743 007c 01E0     		b	.L46
 744              	.L60:
1547:Generated_Source\PSoC4/CyLib.c ****                 }
1548:Generated_Source\PSoC4/CyLib.c ****                 else
1549:Generated_Source\PSoC4/CyLib.c ****                 {
1550:Generated_Source\PSoC4/CyLib.c ****                     aTrim = CY_SYS_CLK_ECO_ATRIM7;
 745              		.loc 1 1550 0
 746 007e 0723     		movs	r3, #7
 747 0080 0393     		str	r3, [sp, #12]
 748              	.L46:
 749              	.LVL51:
1551:Generated_Source\PSoC4/CyLib.c ****                 }
1552:Generated_Source\PSoC4/CyLib.c **** 
1553:Generated_Source\PSoC4/CyLib.c ****                 /* Calculate Watchdog trim. */
1554:Generated_Source\PSoC4/CyLib.c ****                 wDTrim = (maxAmplitude < CY_SYS_CLK_ECO_TRIM_BOUNDARY) ? ((maxAmplitude/200u) - 2u)
 750              		.loc 1 1554 0
 751 0082 364B     		ldr	r3, .L67+32
 752 0084 9F42     		cmp	r7, r3
 753 0086 06D8     		bhi	.L61
 754              		.loc 1 1554 0 is_stmt 0 discriminator 1
 755 0088 C821     		movs	r1, #200
 756              	.LVL52:
 757 008a 3800     		movs	r0, r7
 758              	.LVL53:
 759 008c FFF7FEFF 		bl	__aeabi_uidiv
 760              	.LVL54:
 761 0090 831E     		subs	r3, r0, #2
 762 0092 0293     		str	r3, [sp, #8]
 763 0094 01E0     		b	.L47
 764              	.LVL55:
 765              	.L61:
 766              		.loc 1 1554 0
 767 0096 0323     		movs	r3, #3
ARM GAS  C:\Users\Banni\AppData\Local\Temp\ccvFPZ8V.s 			page 42


 768 0098 0293     		str	r3, [sp, #8]
 769              	.LVL56:
 770              	.L47:
1555:Generated_Source\PSoC4/CyLib.c **** 
1556:Generated_Source\PSoC4/CyLib.c ****                 /* Calculate amplifier gain trim. */
1557:Generated_Source\PSoC4/CyLib.c ****                 gmMin = (uint32) (((((CY_SYS_CLK_ECO_GMMIN_COEFFICIENT * freq * cLoad) / 1000) * ((
 771              		.loc 1 1557 0 is_stmt 1 discriminator 4
 772 009a 7443     		muls	r4, r6
 773              	.LVL57:
 774 009c A000     		lsls	r0, r4, #2
 775 009e 0019     		adds	r0, r0, r4
 776 00a0 0301     		lsls	r3, r0, #4
 777 00a2 181B     		subs	r0, r3, r4
 778 00a4 FA21     		movs	r1, #250
 779 00a6 8900     		lsls	r1, r1, #2
 780 00a8 FFF7FEFF 		bl	__aeabi_uidiv
 781              	.LVL58:
 782 00ac 8246     		mov	r10, r0
 783 00ae 2800     		movs	r0, r5
 784 00b0 6043     		muls	r0, r4
 785 00b2 FA21     		movs	r1, #250
 786 00b4 8900     		lsls	r1, r1, #2
 787 00b6 FFF7FEFF 		bl	__aeabi_uidiv
 788              	.LVL59:
 789 00ba 5346     		mov	r3, r10
 790 00bc 5843     		muls	r0, r3
 791 00be 2849     		ldr	r1, .L67+36
 792 00c0 FFF7FEFF 		bl	__aeabi_uidiv
 793              	.LVL60:
1558:Generated_Source\PSoC4/CyLib.c ****                 if (gmMin > 3u)
 794              		.loc 1 1558 0 discriminator 4
 795 00c4 0328     		cmp	r0, #3
 796 00c6 07D8     		bhi	.L62
1559:Generated_Source\PSoC4/CyLib.c ****                 {
1560:Generated_Source\PSoC4/CyLib.c ****                     returnStatus = CYRET_BAD_PARAM;
1561:Generated_Source\PSoC4/CyLib.c ****                     gTrim = 0u;
1562:Generated_Source\PSoC4/CyLib.c ****                 }
1563:Generated_Source\PSoC4/CyLib.c ****                 else if (gmMin > 1u)
 797              		.loc 1 1563 0
 798 00c8 0128     		cmp	r0, #1
 799 00ca 08D8     		bhi	.L63
1564:Generated_Source\PSoC4/CyLib.c ****                 {
1565:Generated_Source\PSoC4/CyLib.c ****                     gTrim = gmMin;
1566:Generated_Source\PSoC4/CyLib.c ****                 }
1567:Generated_Source\PSoC4/CyLib.c ****                 else
1568:Generated_Source\PSoC4/CyLib.c ****                 {
1569:Generated_Source\PSoC4/CyLib.c ****                     gTrim = (gmMin == 1u) ? 0u : 1u;
 800              		.loc 1 1569 0
 801 00cc 0138     		subs	r0, r0, #1
 802              	.LVL61:
 803 00ce 431E     		subs	r3, r0, #1
 804 00d0 9841     		sbcs	r0, r0, r3
 805              	.LVL62:
 806 00d2 C0B2     		uxtb	r0, r0
 807              	.LVL63:
1499:Generated_Source\PSoC4/CyLib.c **** 
 808              		.loc 1 1499 0
ARM GAS  C:\Users\Banni\AppData\Local\Temp\ccvFPZ8V.s 			page 43


 809 00d4 0024     		movs	r4, #0
 810 00d6 03E0     		b	.L48
 811              	.LVL64:
 812              	.L62:
1561:Generated_Source\PSoC4/CyLib.c ****                 }
 813              		.loc 1 1561 0
 814 00d8 0020     		movs	r0, #0
 815              	.LVL65:
1560:Generated_Source\PSoC4/CyLib.c ****                     gTrim = 0u;
 816              		.loc 1 1560 0
 817 00da 0124     		movs	r4, #1
 818 00dc 00E0     		b	.L48
 819              	.LVL66:
 820              	.L63:
1499:Generated_Source\PSoC4/CyLib.c **** 
 821              		.loc 1 1499 0
 822 00de 0024     		movs	r4, #0
 823              	.LVL67:
 824              	.L48:
1570:Generated_Source\PSoC4/CyLib.c ****                 }
1571:Generated_Source\PSoC4/CyLib.c **** 
1572:Generated_Source\PSoC4/CyLib.c ****                 /* Calculate feedback resistor trim */
1573:Generated_Source\PSoC4/CyLib.c ****                 if (freq > CY_SYS_CLK_ECO_FREQ_FOR_FTRIM0)
 825              		.loc 1 1573 0
 826 00e0 204B     		ldr	r3, .L67+40
 827 00e2 9E42     		cmp	r6, r3
 828 00e4 07D8     		bhi	.L64
1574:Generated_Source\PSoC4/CyLib.c ****                 {
1575:Generated_Source\PSoC4/CyLib.c ****                     rTrim = CY_SYS_CLK_ECO_FTRIM0;
1576:Generated_Source\PSoC4/CyLib.c ****                 }
1577:Generated_Source\PSoC4/CyLib.c ****                 else if (freq > CY_SYS_CLK_ECO_FREQ_FOR_FTRIM1)
 829              		.loc 1 1577 0
 830 00e6 204B     		ldr	r3, .L67+44
 831 00e8 9E42     		cmp	r6, r3
 832 00ea 06D8     		bhi	.L65
1578:Generated_Source\PSoC4/CyLib.c ****                 {
1579:Generated_Source\PSoC4/CyLib.c ****                     rTrim = CY_SYS_CLK_ECO_FTRIM1;
1580:Generated_Source\PSoC4/CyLib.c ****                 }
1581:Generated_Source\PSoC4/CyLib.c ****                 else if (freq > CY_SYS_CLK_ECO_FREQ_FOR_FTRIM2)
 833              		.loc 1 1581 0
 834 00ec 1F4B     		ldr	r3, .L67+48
 835 00ee 9E42     		cmp	r6, r3
 836 00f0 05D9     		bls	.L66
1582:Generated_Source\PSoC4/CyLib.c ****                 {
1583:Generated_Source\PSoC4/CyLib.c ****                     rTrim = CY_SYS_CLK_ECO_FTRIM2;
 837              		.loc 1 1583 0
 838 00f2 0222     		movs	r2, #2
 839 00f4 04E0     		b	.L49
 840              	.L64:
1575:Generated_Source\PSoC4/CyLib.c ****                 }
 841              		.loc 1 1575 0
 842 00f6 0022     		movs	r2, #0
 843 00f8 02E0     		b	.L49
 844              	.L65:
1579:Generated_Source\PSoC4/CyLib.c ****                 }
 845              		.loc 1 1579 0
 846 00fa 0122     		movs	r2, #1
ARM GAS  C:\Users\Banni\AppData\Local\Temp\ccvFPZ8V.s 			page 44


 847 00fc 00E0     		b	.L49
 848              	.L66:
1584:Generated_Source\PSoC4/CyLib.c ****                 }
1585:Generated_Source\PSoC4/CyLib.c ****                 else
1586:Generated_Source\PSoC4/CyLib.c ****                 {
1587:Generated_Source\PSoC4/CyLib.c ****                     rTrim = CY_SYS_CLK_ECO_FTRIM3;
 849              		.loc 1 1587 0
 850 00fe 0322     		movs	r2, #3
 851              	.L49:
 852              	.LVL68:
1588:Generated_Source\PSoC4/CyLib.c ****                 }
1589:Generated_Source\PSoC4/CyLib.c **** 
1590:Generated_Source\PSoC4/CyLib.c ****                 /* Calculate filter frequency trim */
1591:Generated_Source\PSoC4/CyLib.c ****                 fTrim = rTrim;
1592:Generated_Source\PSoC4/CyLib.c **** 
1593:Generated_Source\PSoC4/CyLib.c ****                 CySysClkConfigureEcoTrim(wDTrim, aTrim, fTrim, rTrim, gTrim);
 853              		.loc 1 1593 0
 854 0100 0090     		str	r0, [sp]
 855 0102 1300     		movs	r3, r2
 856 0104 0399     		ldr	r1, [sp, #12]
 857 0106 0298     		ldr	r0, [sp, #8]
 858              	.LVL69:
 859 0108 FFF7FEFF 		bl	CySysClkConfigureEcoTrim
 860              	.LVL70:
1594:Generated_Source\PSoC4/CyLib.c **** 
1595:Generated_Source\PSoC4/CyLib.c ****                 /* Automatic Gain Control (AGC) enable */
1596:Generated_Source\PSoC4/CyLib.c ****                 if (maxAmplitude < 2u)
 861              		.loc 1 1596 0
 862 010c 012F     		cmp	r7, #1
 863 010e 05D8     		bhi	.L50
1597:Generated_Source\PSoC4/CyLib.c ****                 {
1598:Generated_Source\PSoC4/CyLib.c ****                     /* The oscillation amplitude is controlled to the level selected by amplitude t
1599:Generated_Source\PSoC4/CyLib.c ****                     CY_SYS_CLK_ECO_CONFIG_REG |= CY_SYS_CLK_ECO_CONFIG_AGC_EN;
 864              		.loc 1 1599 0
 865 0110 174A     		ldr	r2, .L67+52
 866 0112 1168     		ldr	r1, [r2]
 867 0114 0223     		movs	r3, #2
 868 0116 0B43     		orrs	r3, r1
 869 0118 1360     		str	r3, [r2]
 870              	.LVL71:
 871 011a 0AE0     		b	.L45
 872              	.LVL72:
 873              	.L50:
1600:Generated_Source\PSoC4/CyLib.c ****                 }
1601:Generated_Source\PSoC4/CyLib.c ****                 else
1602:Generated_Source\PSoC4/CyLib.c ****                 {
1603:Generated_Source\PSoC4/CyLib.c ****                     /* The amplitude is not explicitly controlled and will grow until it saturates 
1604:Generated_Source\PSoC4/CyLib.c ****                     * supply rail (1.8V nom).
1605:Generated_Source\PSoC4/CyLib.c ****                     */
1606:Generated_Source\PSoC4/CyLib.c ****                     CY_SYS_CLK_ECO_CONFIG_REG &= (uint32) ~CY_SYS_CLK_ECO_CONFIG_AGC_EN;
 874              		.loc 1 1606 0
 875 011c 144A     		ldr	r2, .L67+52
 876 011e 1368     		ldr	r3, [r2]
 877 0120 0221     		movs	r1, #2
 878 0122 8B43     		bics	r3, r1
 879 0124 1360     		str	r3, [r2]
 880              	.LVL73:
ARM GAS  C:\Users\Banni\AppData\Local\Temp\ccvFPZ8V.s 			page 45


 881 0126 04E0     		b	.L45
 882              	.LVL74:
 883              	.L51:
1513:Generated_Source\PSoC4/CyLib.c ****             }
 884              		.loc 1 1513 0
 885 0128 0124     		movs	r4, #1
 886 012a 02E0     		b	.L45
 887              	.L52:
 888 012c 0124     		movs	r4, #1
 889 012e 00E0     		b	.L45
 890              	.L53:
 891 0130 0124     		movs	r4, #1
 892              	.LVL75:
 893              	.L45:
1607:Generated_Source\PSoC4/CyLib.c ****                 }
1608:Generated_Source\PSoC4/CyLib.c ****             }
1609:Generated_Source\PSoC4/CyLib.c **** 
1610:Generated_Source\PSoC4/CyLib.c ****             return (returnStatus);
1611:Generated_Source\PSoC4/CyLib.c ****         }
 894              		.loc 1 1611 0
 895 0132 2000     		movs	r0, r4
 896 0134 04B0     		add	sp, sp, #16
 897              		@ sp needed
 898              	.LVL76:
 899              	.LVL77:
 900              	.LVL78:
 901              	.LVL79:
 902 0136 04BC     		pop	{r2}
 903 0138 9246     		mov	r10, r2
 904 013a F0BD     		pop	{r4, r5, r6, r7, pc}
 905              	.L68:
 906              		.align	2
 907              	.L67:
 908 013c 9F0F0000 		.word	3999
 909 0140 35820000 		.word	33333
 910 0144 57020000 		.word	599
 911 0148 BB020000 		.word	699
 912 014c 1F030000 		.word	799
 913 0150 83030000 		.word	899
 914 0154 7D040000 		.word	1149
 915 0158 FA040000 		.word	1274
 916 015c AF040000 		.word	1199
 917 0160 8074D21A 		.word	450000000
 918 0164 30750000 		.word	30000
 919 0168 C05D0000 		.word	24000
 920 016c 68420000 		.word	17000
 921 0170 08002F40 		.word	1076822024
 922              		.cfi_endproc
 923              	.LFE16:
 924              		.size	CySysClkConfigureEcoDrive, .-CySysClkConfigureEcoDrive
 925              		.section	.text.CySysClkPllStop,"ax",%progbits
 926              		.align	2
 927              		.global	CySysClkPllStop
 928              		.code	16
 929              		.thumb_func
 930              		.type	CySysClkPllStop, %function
 931              	CySysClkPllStop:
ARM GAS  C:\Users\Banni\AppData\Local\Temp\ccvFPZ8V.s 			page 46


 932              	.LFB19:
1612:Generated_Source\PSoC4/CyLib.c **** 
1613:Generated_Source\PSoC4/CyLib.c ****     #endif /* CY_IP_ECO_BLESS */
1614:Generated_Source\PSoC4/CyLib.c **** 
1615:Generated_Source\PSoC4/CyLib.c **** #endif /* (CY_IP_ECO) */
1616:Generated_Source\PSoC4/CyLib.c **** 
1617:Generated_Source\PSoC4/CyLib.c **** 
1618:Generated_Source\PSoC4/CyLib.c **** #if (CY_IP_PLL)
1619:Generated_Source\PSoC4/CyLib.c ****     /*******************************************************************************
1620:Generated_Source\PSoC4/CyLib.c ****     * Function Name: CySysClkPllStart
1621:Generated_Source\PSoC4/CyLib.c ****     ****************************************************************************//**
1622:Generated_Source\PSoC4/CyLib.c ****     *
1623:Generated_Source\PSoC4/CyLib.c ****     * Enables the PLL. Optionally waits for it to become stable. Waits at least
1624:Generated_Source\PSoC4/CyLib.c ****     * 250 us or until it is detected that the PLL is stable.
1625:Generated_Source\PSoC4/CyLib.c ****     *
1626:Generated_Source\PSoC4/CyLib.c ****     * Clears the unlock occurred status bit by calling CySysClkPllGetUnlockStatus(),
1627:Generated_Source\PSoC4/CyLib.c ****     * once the PLL is locked if the wait parameter is 1).
1628:Generated_Source\PSoC4/CyLib.c ****     *
1629:Generated_Source\PSoC4/CyLib.c ****     * This API is available only for PSoC 4200L / 4100S with PLL devices.
1630:Generated_Source\PSoC4/CyLib.c ****     *
1631:Generated_Source\PSoC4/CyLib.c ****     * \param PLL:
1632:Generated_Source\PSoC4/CyLib.c ****     * 0   PLL#0
1633:Generated_Source\PSoC4/CyLib.c ****     * 1   PLL#1 (available only for PSoC 4200L)
1634:Generated_Source\PSoC4/CyLib.c ****     *
1635:Generated_Source\PSoC4/CyLib.c ****     * \param wait:
1636:Generated_Source\PSoC4/CyLib.c ****     * 0 - Return immediately after configuration.
1637:Generated_Source\PSoC4/CyLib.c ****     * 1 - Wait for PLL lock or timeout. This API shall use the CyDelayUs() to
1638:Generated_Source\PSoC4/CyLib.c ****     * implement the timeout feature.
1639:Generated_Source\PSoC4/CyLib.c ****     *
1640:Generated_Source\PSoC4/CyLib.c ****     * \return CYRET_SUCCESS Completed successfully.
1641:Generated_Source\PSoC4/CyLib.c ****     * \return CYRET_TIMEOUT The timeout occurred without detecting a stable clock.
1642:Generated_Source\PSoC4/CyLib.c ****     * If the input source of the clock is jittery, then the lock indication may
1643:Generated_Source\PSoC4/CyLib.c ****     * not occur. However, after the timeout has expired, the generated PLL clock can
1644:Generated_Source\PSoC4/CyLib.c ****     * still be used.
1645:Generated_Source\PSoC4/CyLib.c ****     * \return CYRET_BAD_PARAM - Either the PLL or wait parameter is invalid.
1646:Generated_Source\PSoC4/CyLib.c ****     *
1647:Generated_Source\PSoC4/CyLib.c ****     *******************************************************************************/
1648:Generated_Source\PSoC4/CyLib.c ****     cystatus CySysClkPllStart(uint32 pll, uint32 wait)
1649:Generated_Source\PSoC4/CyLib.c ****     {
1650:Generated_Source\PSoC4/CyLib.c ****         uint32 counts = CY_SYS_CLK_PLL_MAX_STARTUP_US;
1651:Generated_Source\PSoC4/CyLib.c ****         uint8  interruptState;
1652:Generated_Source\PSoC4/CyLib.c ****         cystatus returnStatus = CYRET_SUCCESS;
1653:Generated_Source\PSoC4/CyLib.c **** 
1654:Generated_Source\PSoC4/CyLib.c ****         if((pll < CY_IP_PLL_NR) && (wait <= 1u))
1655:Generated_Source\PSoC4/CyLib.c ****         {
1656:Generated_Source\PSoC4/CyLib.c ****             interruptState = CyEnterCriticalSection();
1657:Generated_Source\PSoC4/CyLib.c **** 
1658:Generated_Source\PSoC4/CyLib.c ****             /* Isolate PLL outputs */
1659:Generated_Source\PSoC4/CyLib.c ****             CY_SYS_CLK_PLL_BASE.pll[pll].config &= (uint32) ~CY_SYS_CLK_PLL_CONFIG_ISOLATE;
1660:Generated_Source\PSoC4/CyLib.c **** 
1661:Generated_Source\PSoC4/CyLib.c ****             /* Enable PLL */
1662:Generated_Source\PSoC4/CyLib.c ****             CY_SYS_CLK_PLL_BASE.pll[pll].config |= CY_SYS_CLK_PLL_CONFIG_ENABLE;
1663:Generated_Source\PSoC4/CyLib.c **** 
1664:Generated_Source\PSoC4/CyLib.c ****             CyExitCriticalSection(interruptState);
1665:Generated_Source\PSoC4/CyLib.c **** 
1666:Generated_Source\PSoC4/CyLib.c ****             /* De-isolate >= CY_SYS_CLK_PLL_MIN_STARTUP_US after PLL enabled */
1667:Generated_Source\PSoC4/CyLib.c ****             CyDelayUs(CY_SYS_CLK_PLL_MIN_STARTUP_US);
ARM GAS  C:\Users\Banni\AppData\Local\Temp\ccvFPZ8V.s 			page 47


1668:Generated_Source\PSoC4/CyLib.c ****             interruptState = CyEnterCriticalSection();
1669:Generated_Source\PSoC4/CyLib.c ****             CY_SYS_CLK_PLL_BASE.pll[pll].config |= CY_SYS_CLK_PLL_CONFIG_ISOLATE;
1670:Generated_Source\PSoC4/CyLib.c ****             CyExitCriticalSection(interruptState);
1671:Generated_Source\PSoC4/CyLib.c **** 
1672:Generated_Source\PSoC4/CyLib.c ****             if(wait != 0u)
1673:Generated_Source\PSoC4/CyLib.c ****             {
1674:Generated_Source\PSoC4/CyLib.c ****                 returnStatus = CYRET_TIMEOUT;
1675:Generated_Source\PSoC4/CyLib.c **** 
1676:Generated_Source\PSoC4/CyLib.c ****                 while(0u != counts)
1677:Generated_Source\PSoC4/CyLib.c ****                 {
1678:Generated_Source\PSoC4/CyLib.c **** 
1679:Generated_Source\PSoC4/CyLib.c ****                     if(0u != CySysClkPllGetLockStatus(pll))
1680:Generated_Source\PSoC4/CyLib.c ****                     {
1681:Generated_Source\PSoC4/CyLib.c ****                         returnStatus = CYRET_SUCCESS;
1682:Generated_Source\PSoC4/CyLib.c ****                         (void) CySysClkPllGetUnlockStatus(pll);
1683:Generated_Source\PSoC4/CyLib.c ****                         break;
1684:Generated_Source\PSoC4/CyLib.c ****                     }
1685:Generated_Source\PSoC4/CyLib.c **** 
1686:Generated_Source\PSoC4/CyLib.c ****                     CyDelayUs(1u);
1687:Generated_Source\PSoC4/CyLib.c ****                     counts--;
1688:Generated_Source\PSoC4/CyLib.c ****                 }
1689:Generated_Source\PSoC4/CyLib.c ****             }
1690:Generated_Source\PSoC4/CyLib.c ****         }
1691:Generated_Source\PSoC4/CyLib.c ****         else
1692:Generated_Source\PSoC4/CyLib.c ****         {
1693:Generated_Source\PSoC4/CyLib.c ****             returnStatus = CYRET_BAD_PARAM;
1694:Generated_Source\PSoC4/CyLib.c ****         }
1695:Generated_Source\PSoC4/CyLib.c **** 
1696:Generated_Source\PSoC4/CyLib.c ****         return (returnStatus);
1697:Generated_Source\PSoC4/CyLib.c ****     }
1698:Generated_Source\PSoC4/CyLib.c **** 
1699:Generated_Source\PSoC4/CyLib.c **** 
1700:Generated_Source\PSoC4/CyLib.c ****     /*******************************************************************************
1701:Generated_Source\PSoC4/CyLib.c ****     * Function Name: CySysClkPllGetLockStatus
1702:Generated_Source\PSoC4/CyLib.c ****     ****************************************************************************//**
1703:Generated_Source\PSoC4/CyLib.c ****     *
1704:Generated_Source\PSoC4/CyLib.c ****     * Returns non-zero if the output of the specified PLL output is locked.
1705:Generated_Source\PSoC4/CyLib.c ****     *
1706:Generated_Source\PSoC4/CyLib.c ****     * This API is available only for PSoC 4200L / 4100S with PLL devices.
1707:Generated_Source\PSoC4/CyLib.c ****     *
1708:Generated_Source\PSoC4/CyLib.c ****     * PLL:
1709:Generated_Source\PSoC4/CyLib.c ****     *  0   PLL#0
1710:Generated_Source\PSoC4/CyLib.c ****     *  1   PLL#1 (available only for PSoC 4200L)
1711:Generated_Source\PSoC4/CyLib.c ****     *
1712:Generated_Source\PSoC4/CyLib.c ****     * \return A non-zero value when the specified PLL is locked.
1713:Generated_Source\PSoC4/CyLib.c ****     *
1714:Generated_Source\PSoC4/CyLib.c ****     *******************************************************************************/
1715:Generated_Source\PSoC4/CyLib.c ****     uint32 CySysClkPllGetLockStatus(uint32 pll)
1716:Generated_Source\PSoC4/CyLib.c ****     {
1717:Generated_Source\PSoC4/CyLib.c ****         uint8  interruptState;
1718:Generated_Source\PSoC4/CyLib.c ****         uint32 returnStatus;
1719:Generated_Source\PSoC4/CyLib.c **** 
1720:Generated_Source\PSoC4/CyLib.c ****         CYASSERT(pll < CY_IP_PLL_NR);
1721:Generated_Source\PSoC4/CyLib.c **** 
1722:Generated_Source\PSoC4/CyLib.c ****         interruptState = CyEnterCriticalSection();
1723:Generated_Source\PSoC4/CyLib.c **** 
1724:Generated_Source\PSoC4/CyLib.c ****         /* PLL is locked if reported so for two consecutive read. */
ARM GAS  C:\Users\Banni\AppData\Local\Temp\ccvFPZ8V.s 			page 48


1725:Generated_Source\PSoC4/CyLib.c ****         returnStatus = CY_SYS_CLK_PLL_BASE.pll[pll].status & CY_SYS_CLK_PLL_STATUS_LOCKED;
1726:Generated_Source\PSoC4/CyLib.c ****         if(0u != returnStatus)
1727:Generated_Source\PSoC4/CyLib.c ****         {
1728:Generated_Source\PSoC4/CyLib.c ****             returnStatus = CY_SYS_CLK_PLL_BASE.pll[pll].status & CY_SYS_CLK_PLL_STATUS_LOCKED;
1729:Generated_Source\PSoC4/CyLib.c ****         }
1730:Generated_Source\PSoC4/CyLib.c **** 
1731:Generated_Source\PSoC4/CyLib.c ****         CyExitCriticalSection(interruptState);
1732:Generated_Source\PSoC4/CyLib.c **** 
1733:Generated_Source\PSoC4/CyLib.c ****         return (returnStatus);
1734:Generated_Source\PSoC4/CyLib.c ****     }
1735:Generated_Source\PSoC4/CyLib.c **** 
1736:Generated_Source\PSoC4/CyLib.c ****     /*******************************************************************************
1737:Generated_Source\PSoC4/CyLib.c ****     * Function Name: CySysClkPllStop
1738:Generated_Source\PSoC4/CyLib.c ****     ****************************************************************************//**
1739:Generated_Source\PSoC4/CyLib.c ****     *
1740:Generated_Source\PSoC4/CyLib.c ****     * Disables the PLL.
1741:Generated_Source\PSoC4/CyLib.c ****     *
1742:Generated_Source\PSoC4/CyLib.c ****     * Ensures that either PLL is not the source of HFCLK before it is disabled,
1743:Generated_Source\PSoC4/CyLib.c ****     * otherwise, the CPU will halt.
1744:Generated_Source\PSoC4/CyLib.c ****     *
1745:Generated_Source\PSoC4/CyLib.c ****     * This API is available only for PSoC 4200L / 4100S with PLL devices.
1746:Generated_Source\PSoC4/CyLib.c ****     *
1747:Generated_Source\PSoC4/CyLib.c ****     * PLL:
1748:Generated_Source\PSoC4/CyLib.c ****     *  0   PLL#0
1749:Generated_Source\PSoC4/CyLib.c ****     *  1   PLL#1 (available only for PSoC 4200L)
1750:Generated_Source\PSoC4/CyLib.c ****     *
1751:Generated_Source\PSoC4/CyLib.c ****     *******************************************************************************/
1752:Generated_Source\PSoC4/CyLib.c ****     void CySysClkPllStop(uint32 pll)
1753:Generated_Source\PSoC4/CyLib.c ****     {
 933              		.loc 1 1753 0
 934              		.cfi_startproc
 935              		@ args = 0, pretend = 0, frame = 0
 936              		@ frame_needed = 0, uses_anonymous_args = 0
 937              	.LVL80:
 938 0000 70B5     		push	{r4, r5, r6, lr}
 939              		.cfi_def_cfa_offset 16
 940              		.cfi_offset 4, -16
 941              		.cfi_offset 5, -12
 942              		.cfi_offset 6, -8
 943              		.cfi_offset 14, -4
 944 0002 041E     		subs	r4, r0, #0
1754:Generated_Source\PSoC4/CyLib.c ****         uint8  interruptState;
1755:Generated_Source\PSoC4/CyLib.c **** 
1756:Generated_Source\PSoC4/CyLib.c ****         if (pll < CY_IP_PLL_NR)
 945              		.loc 1 1756 0
 946 0004 0CD1     		bne	.L69
1757:Generated_Source\PSoC4/CyLib.c ****         {
1758:Generated_Source\PSoC4/CyLib.c ****             interruptState = CyEnterCriticalSection();
 947              		.loc 1 1758 0
 948 0006 FFF7FEFF 		bl	CyEnterCriticalSection
 949              	.LVL81:
1759:Generated_Source\PSoC4/CyLib.c ****             CY_SYS_CLK_PLL_BASE.pll[pll].config &= (uint32) ~(CY_SYS_CLK_PLL_CONFIG_ISOLATE | CY_SY
 950              		.loc 1 1759 0
 951 000a 064A     		ldr	r2, .L71
 952 000c 6100     		lsls	r1, r4, #1
 953 000e 0D19     		adds	r5, r1, r4
 954 0010 AB00     		lsls	r3, r5, #2
ARM GAS  C:\Users\Banni\AppData\Local\Temp\ccvFPZ8V.s 			page 49


 955 0012 9B58     		ldr	r3, [r3, r2]
 956 0014 9B00     		lsls	r3, r3, #2
 957 0016 9B08     		lsrs	r3, r3, #2
 958 0018 A900     		lsls	r1, r5, #2
 959 001a 8B50     		str	r3, [r1, r2]
1760:Generated_Source\PSoC4/CyLib.c ****             CyExitCriticalSection(interruptState);
 960              		.loc 1 1760 0
 961 001c FFF7FEFF 		bl	CyExitCriticalSection
 962              	.LVL82:
 963              	.L69:
1761:Generated_Source\PSoC4/CyLib.c ****         }
1762:Generated_Source\PSoC4/CyLib.c ****     }
 964              		.loc 1 1762 0
 965              		@ sp needed
 966              	.LVL83:
 967 0020 70BD     		pop	{r4, r5, r6, pc}
 968              	.L72:
 969 0022 C046     		.align	2
 970              	.L71:
 971 0024 14002F40 		.word	1076822036
 972              		.cfi_endproc
 973              	.LFE19:
 974              		.size	CySysClkPllStop, .-CySysClkPllStop
 975              		.section	.text.CySysClkPllSetBypassMode,"ax",%progbits
 976              		.align	2
 977              		.global	CySysClkPllSetBypassMode
 978              		.code	16
 979              		.thumb_func
 980              		.type	CySysClkPllSetBypassMode, %function
 981              	CySysClkPllSetBypassMode:
 982              	.LFB21:
1763:Generated_Source\PSoC4/CyLib.c **** 
1764:Generated_Source\PSoC4/CyLib.c **** 
1765:Generated_Source\PSoC4/CyLib.c ****     /*******************************************************************************
1766:Generated_Source\PSoC4/CyLib.c ****     * Function Name: CySysClkPllSetPQ
1767:Generated_Source\PSoC4/CyLib.c ****     ****************************************************************************//**
1768:Generated_Source\PSoC4/CyLib.c ****     *
1769:Generated_Source\PSoC4/CyLib.c ****     * Sets feedback (P) and reference the (Q) divider value. This API also sets the
1770:Generated_Source\PSoC4/CyLib.c ****     * programmable charge pump current value. Note that the PLL has to be disabled
1771:Generated_Source\PSoC4/CyLib.c ****     * before calling this API. If this function is called while any PLL is sourcing,
1772:Generated_Source\PSoC4/CyLib.c ****     * the SYSCLK will return an error.
1773:Generated_Source\PSoC4/CyLib.c ****     *
1774:Generated_Source\PSoC4/CyLib.c ****     * The PLL must not be the system clock source when calling this function. The
1775:Generated_Source\PSoC4/CyLib.c ****     * PLL output will glitch during this function call.
1776:Generated_Source\PSoC4/CyLib.c ****     *
1777:Generated_Source\PSoC4/CyLib.c ****     * This API is available only for PSoC 4200L / 4100S with PLL devices.
1778:Generated_Source\PSoC4/CyLib.c ****     *
1779:Generated_Source\PSoC4/CyLib.c ****     * \param PLL:
1780:Generated_Source\PSoC4/CyLib.c ****     *  0   PLL#0
1781:Generated_Source\PSoC4/CyLib.c ****     *  1   PLL#1 (available only for PSoC 4200L)
1782:Generated_Source\PSoC4/CyLib.c ****     *
1783:Generated_Source\PSoC4/CyLib.c ****     * \param feedback The P divider. Range 4 - 259. Control bits for the feedback
1784:Generated_Source\PSoC4/CyLib.c ****     * divider.
1785:Generated_Source\PSoC4/CyLib.c ****     *
1786:Generated_Source\PSoC4/CyLib.c ****     * \param reference The Q divider. Range 1 - 64. Divide by the reference.
1787:Generated_Source\PSoC4/CyLib.c ****     *
1788:Generated_Source\PSoC4/CyLib.c ****     * \param current Charge the pump current in uA. The 2 uA for output frequencies
ARM GAS  C:\Users\Banni\AppData\Local\Temp\ccvFPZ8V.s 			page 50


1789:Generated_Source\PSoC4/CyLib.c ****     * of 67 MHz or less, and 3 uA for higher output frequencies. The default
1790:Generated_Source\PSoC4/CyLib.c ****     * value is 2 uA.
1791:Generated_Source\PSoC4/CyLib.c ****     *
1792:Generated_Source\PSoC4/CyLib.c ****     * \return CYRET_SUCCESS Completed successfully.
1793:Generated_Source\PSoC4/CyLib.c ****     * \return CYRET_BAD_PARAM The parameters are out of range or the specified PLL
1794:Generated_Source\PSoC4/CyLib.c ****     * sources the system clock.
1795:Generated_Source\PSoC4/CyLib.c ****     *
1796:Generated_Source\PSoC4/CyLib.c ****     *******************************************************************************/
1797:Generated_Source\PSoC4/CyLib.c ****     cystatus CySysClkPllSetPQ(uint32 pll, uint32 feedback, uint32 reference, uint32 current)
1798:Generated_Source\PSoC4/CyLib.c ****     {
1799:Generated_Source\PSoC4/CyLib.c ****         uint32   regTmp;
1800:Generated_Source\PSoC4/CyLib.c ****         cystatus tmp;
1801:Generated_Source\PSoC4/CyLib.c ****         uint8    interruptState;
1802:Generated_Source\PSoC4/CyLib.c ****         cystatus returnStatus = CYRET_BAD_PARAM;
1803:Generated_Source\PSoC4/CyLib.c **** 
1804:Generated_Source\PSoC4/CyLib.c ****         interruptState = CyEnterCriticalSection();
1805:Generated_Source\PSoC4/CyLib.c **** 
1806:Generated_Source\PSoC4/CyLib.c ****         tmp = CySysClkPllConfigChangeAllowed(pll);
1807:Generated_Source\PSoC4/CyLib.c **** 
1808:Generated_Source\PSoC4/CyLib.c ****         if ((pll < CY_IP_PLL_NR) &&
1809:Generated_Source\PSoC4/CyLib.c ****             (feedback  >= CY_SYS_CLK_PLL_CONFIG_FEEDBACK_DIV_MIN)  && (feedback  <= CY_SYS_CLK_PLL_
1810:Generated_Source\PSoC4/CyLib.c ****             (reference >= CY_SYS_CLK_PLL_CONFIG_REFERENCE_DIV_MIN) && (reference <= CY_SYS_CLK_PLL_
1811:Generated_Source\PSoC4/CyLib.c ****             (current   >= CY_SYS_CLK_PLL_CONFIG_ICP_SEL_MIN )      && (current   <= CY_SYS_CLK_PLL_
1812:Generated_Source\PSoC4/CyLib.c ****             (CYRET_SUCCESS == tmp))
1813:Generated_Source\PSoC4/CyLib.c ****         {
1814:Generated_Source\PSoC4/CyLib.c ****             /* Set new feedback, reference and current values */
1815:Generated_Source\PSoC4/CyLib.c ****             regTmp  = CY_SYS_CLK_PLL_BASE.pll[pll].config & (uint32) ~(CY_SYS_CLK_PLL_CONFIG_FEEDBA
1816:Generated_Source\PSoC4/CyLib.c ****                                                                        CY_SYS_CLK_PLL_CONFIG_REFERE
1817:Generated_Source\PSoC4/CyLib.c ****                                                                        CY_SYS_CLK_PLL_CONFIG_ICP_SE
1818:Generated_Source\PSoC4/CyLib.c **** 
1819:Generated_Source\PSoC4/CyLib.c ****             regTmp |= ((feedback << CY_SYS_CLK_PLL_CONFIG_FEEDBACK_DIV_SHIFT) & CY_SYS_CLK_PLL_CONF
1820:Generated_Source\PSoC4/CyLib.c ****             regTmp |= (((reference - 1u) << CY_SYS_CLK_PLL_CONFIG_REFERENCE_DIV_SHIFT) & CY_SYS_CLK
1821:Generated_Source\PSoC4/CyLib.c ****             regTmp |= ((current << CY_SYS_CLK_PLL_CONFIG_ICP_SEL_SHIFT) & CY_SYS_CLK_PLL_CONFIG_ICP
1822:Generated_Source\PSoC4/CyLib.c **** 
1823:Generated_Source\PSoC4/CyLib.c ****             CY_SYS_CLK_PLL_BASE.pll[pll].config = regTmp;
1824:Generated_Source\PSoC4/CyLib.c **** 
1825:Generated_Source\PSoC4/CyLib.c ****             returnStatus = CYRET_SUCCESS;
1826:Generated_Source\PSoC4/CyLib.c ****         }
1827:Generated_Source\PSoC4/CyLib.c **** 
1828:Generated_Source\PSoC4/CyLib.c ****         CyExitCriticalSection(interruptState);
1829:Generated_Source\PSoC4/CyLib.c **** 
1830:Generated_Source\PSoC4/CyLib.c ****         return (returnStatus);
1831:Generated_Source\PSoC4/CyLib.c ****     }
1832:Generated_Source\PSoC4/CyLib.c **** 
1833:Generated_Source\PSoC4/CyLib.c **** 
1834:Generated_Source\PSoC4/CyLib.c ****     /*******************************************************************************
1835:Generated_Source\PSoC4/CyLib.c ****     * Function Name: CySysClkPllSetBypassMode
1836:Generated_Source\PSoC4/CyLib.c ****     ****************************************************************************//**
1837:Generated_Source\PSoC4/CyLib.c ****     *
1838:Generated_Source\PSoC4/CyLib.c ****     * Sets the bypass mode for the specified PLL.
1839:Generated_Source\PSoC4/CyLib.c ****     *
1840:Generated_Source\PSoC4/CyLib.c ****     * The PLL must not be the system clock source when calling this function.
1841:Generated_Source\PSoC4/CyLib.c ****     * The PLL output will glitch during this function call.
1842:Generated_Source\PSoC4/CyLib.c ****     *
1843:Generated_Source\PSoC4/CyLib.c ****     * When the PLL's reference input is higher than HFCLK frequency the device may 
1844:Generated_Source\PSoC4/CyLib.c ****     * lock due to incorrect flash wait cycle configuration and bypass switches from 
1845:Generated_Source\PSoC4/CyLib.c ****     * PLL output to the reference input. See description of 
ARM GAS  C:\Users\Banni\AppData\Local\Temp\ccvFPZ8V.s 			page 51


1846:Generated_Source\PSoC4/CyLib.c ****     * CySysFlashSetWaitCycles() for more information.
1847:Generated_Source\PSoC4/CyLib.c ****     *
1848:Generated_Source\PSoC4/CyLib.c ****     * This API is available only for PSoC 4200L / 4100S with PLL devices.
1849:Generated_Source\PSoC4/CyLib.c ****     *
1850:Generated_Source\PSoC4/CyLib.c ****     * \param PLL:
1851:Generated_Source\PSoC4/CyLib.c ****     *  0   PLL#0
1852:Generated_Source\PSoC4/CyLib.c ****     *  1   PLL#1 (available only for PSoC 4200L)
1853:Generated_Source\PSoC4/CyLib.c ****     *
1854:Generated_Source\PSoC4/CyLib.c ****     * \param bypass: The bypass mode.
1855:Generated_Source\PSoC4/CyLib.c ****     * CY_SYS_PLL_BYPASS_AUTO - Automatic usage of the lock indicator. When unlocked,
1856:Generated_Source\PSoC4/CyLib.c ****     * automatically selects PLL the reference input (bypass mode). When locked,
1857:Generated_Source\PSoC4/CyLib.c ****     * automatically selects the PLL output.
1858:Generated_Source\PSoC4/CyLib.c ****     *
1859:Generated_Source\PSoC4/CyLib.c ****     * CY_SYS_PLL_BYPASS_PLL_REF - Selects the PLL reference input (bypass mode).
1860:Generated_Source\PSoC4/CyLib.c ****     * Ignores the lock indicator.
1861:Generated_Source\PSoC4/CyLib.c ****     *
1862:Generated_Source\PSoC4/CyLib.c ****     * CY_SYS_PLL_BYPASS_PLL_OUT - Selects the PLL output.  Ignores the lock indicator.
1863:Generated_Source\PSoC4/CyLib.c ****     *
1864:Generated_Source\PSoC4/CyLib.c ****     *******************************************************************************/
1865:Generated_Source\PSoC4/CyLib.c ****     void CySysClkPllSetBypassMode(uint32 pll, uint32 bypass)
1866:Generated_Source\PSoC4/CyLib.c ****     {
 983              		.loc 1 1866 0
 984              		.cfi_startproc
 985              		@ args = 0, pretend = 0, frame = 0
 986              		@ frame_needed = 0, uses_anonymous_args = 0
 987              	.LVL84:
 988 0000 70B5     		push	{r4, r5, r6, lr}
 989              		.cfi_def_cfa_offset 16
 990              		.cfi_offset 4, -16
 991              		.cfi_offset 5, -12
 992              		.cfi_offset 6, -8
 993              		.cfi_offset 14, -4
 994 0002 0400     		movs	r4, r0
 995 0004 0D00     		movs	r5, r1
1867:Generated_Source\PSoC4/CyLib.c ****         uint32 regTmp;
1868:Generated_Source\PSoC4/CyLib.c ****         uint8  interruptState;
1869:Generated_Source\PSoC4/CyLib.c **** 
1870:Generated_Source\PSoC4/CyLib.c ****         interruptState = CyEnterCriticalSection();
 996              		.loc 1 1870 0
 997 0006 FFF7FEFF 		bl	CyEnterCriticalSection
 998              	.LVL85:
1871:Generated_Source\PSoC4/CyLib.c **** 
1872:Generated_Source\PSoC4/CyLib.c ****         if ((pll < CY_IP_PLL_NR) && (bypass <= CY_SYS_PLL_BYPASS_PLL_OUT))
 999              		.loc 1 1872 0
 1000 000a 002C     		cmp	r4, #0
 1001 000c 0DD1     		bne	.L74
 1002              		.loc 1 1872 0 is_stmt 0 discriminator 1
 1003 000e 032D     		cmp	r5, #3
 1004 0010 0BD8     		bhi	.L74
1873:Generated_Source\PSoC4/CyLib.c ****         {
1874:Generated_Source\PSoC4/CyLib.c ****             regTmp  = CY_SYS_CLK_PLL_BASE.pll[pll].config & (uint32) ~CY_SYS_CLK_PLL_CONFIG_BYPASS_
 1005              		.loc 1 1874 0 is_stmt 1
 1006 0012 074A     		ldr	r2, .L75
 1007 0014 6100     		lsls	r1, r4, #1
 1008 0016 0E19     		adds	r6, r1, r4
 1009 0018 B300     		lsls	r3, r6, #2
 1010 001a 9E58     		ldr	r6, [r3, r2]
ARM GAS  C:\Users\Banni\AppData\Local\Temp\ccvFPZ8V.s 			page 52


 1011 001c 054B     		ldr	r3, .L75+4
 1012 001e 3340     		ands	r3, r6
 1013              	.LVL86:
1875:Generated_Source\PSoC4/CyLib.c ****             regTmp |=  (uint32)(bypass << CY_SYS_CLK_PLL_CONFIG_BYPASS_SEL_SHIFT);
 1014              		.loc 1 1875 0
 1015 0020 2D05     		lsls	r5, r5, #20
 1016              	.LVL87:
 1017 0022 1D43     		orrs	r5, r3
 1018              	.LVL88:
1876:Generated_Source\PSoC4/CyLib.c ****             CY_SYS_CLK_PLL_BASE.pll[pll].config = regTmp;
 1019              		.loc 1 1876 0
 1020 0024 0C19     		adds	r4, r1, r4
 1021              	.LVL89:
 1022 0026 A300     		lsls	r3, r4, #2
 1023 0028 9D50     		str	r5, [r3, r2]
 1024              	.LVL90:
 1025              	.L74:
1877:Generated_Source\PSoC4/CyLib.c ****         }
1878:Generated_Source\PSoC4/CyLib.c **** 
1879:Generated_Source\PSoC4/CyLib.c ****         CyExitCriticalSection(interruptState);
 1026              		.loc 1 1879 0
 1027 002a FFF7FEFF 		bl	CyExitCriticalSection
 1028              	.LVL91:
1880:Generated_Source\PSoC4/CyLib.c ****     }
 1029              		.loc 1 1880 0
 1030              		@ sp needed
 1031 002e 70BD     		pop	{r4, r5, r6, pc}
 1032              	.L76:
 1033              		.align	2
 1034              	.L75:
 1035 0030 14002F40 		.word	1076822036
 1036 0034 FFFFCFFF 		.word	-3145729
 1037              		.cfi_endproc
 1038              	.LFE21:
 1039              		.size	CySysClkPllSetBypassMode, .-CySysClkPllSetBypassMode
 1040              		.section	.text.CySysClkPllGetUnlockStatus,"ax",%progbits
 1041              		.align	2
 1042              		.global	CySysClkPllGetUnlockStatus
 1043              		.code	16
 1044              		.thumb_func
 1045              		.type	CySysClkPllGetUnlockStatus, %function
 1046              	CySysClkPllGetUnlockStatus:
 1047              	.LFB24:
1881:Generated_Source\PSoC4/CyLib.c **** 
1882:Generated_Source\PSoC4/CyLib.c **** 
1883:Generated_Source\PSoC4/CyLib.c ****     /*******************************************************************************
1884:Generated_Source\PSoC4/CyLib.c ****     * Function Name: CySysClkPllGetBypassMode
1885:Generated_Source\PSoC4/CyLib.c ****     ****************************************************************************//**
1886:Generated_Source\PSoC4/CyLib.c ****     *
1887:Generated_Source\PSoC4/CyLib.c ****     *  Gets the bypass mode for the specified PLL.
1888:Generated_Source\PSoC4/CyLib.c ****     *  This API is available only for PSoC 4200L / 4100S with PLL devices.
1889:Generated_Source\PSoC4/CyLib.c ****     *
1890:Generated_Source\PSoC4/CyLib.c ****     *  \param PLL:
1891:Generated_Source\PSoC4/CyLib.c ****     *   0   PLL#0
1892:Generated_Source\PSoC4/CyLib.c ****     *   1   PLL#1 (available only for PSoC 4200L)
1893:Generated_Source\PSoC4/CyLib.c ****     *
1894:Generated_Source\PSoC4/CyLib.c ****     *  \param bypass: Bypass mode.
ARM GAS  C:\Users\Banni\AppData\Local\Temp\ccvFPZ8V.s 			page 53


1895:Generated_Source\PSoC4/CyLib.c ****     *   The same as the parameter of the CySysClkPllSetBypassMode().
1896:Generated_Source\PSoC4/CyLib.c ****     *
1897:Generated_Source\PSoC4/CyLib.c ****     *******************************************************************************/
1898:Generated_Source\PSoC4/CyLib.c ****     static uint32 CySysClkPllGetBypassMode(uint32 pll)
1899:Generated_Source\PSoC4/CyLib.c ****     {
1900:Generated_Source\PSoC4/CyLib.c ****         uint32 returnValue;
1901:Generated_Source\PSoC4/CyLib.c ****         uint8  interruptState;
1902:Generated_Source\PSoC4/CyLib.c **** 
1903:Generated_Source\PSoC4/CyLib.c ****         CYASSERT(pll < CY_IP_PLL_NR);
1904:Generated_Source\PSoC4/CyLib.c **** 
1905:Generated_Source\PSoC4/CyLib.c ****         interruptState = CyEnterCriticalSection();
1906:Generated_Source\PSoC4/CyLib.c **** 
1907:Generated_Source\PSoC4/CyLib.c ****         returnValue = CY_SYS_CLK_PLL_BASE.pll[pll].config & CY_SYS_CLK_PLL_CONFIG_BYPASS_SEL_MASK;
1908:Generated_Source\PSoC4/CyLib.c ****         returnValue =  returnValue >> CY_SYS_CLK_PLL_CONFIG_BYPASS_SEL_SHIFT;
1909:Generated_Source\PSoC4/CyLib.c **** 
1910:Generated_Source\PSoC4/CyLib.c ****         CyExitCriticalSection(interruptState);
1911:Generated_Source\PSoC4/CyLib.c **** 
1912:Generated_Source\PSoC4/CyLib.c ****         return (returnValue);
1913:Generated_Source\PSoC4/CyLib.c ****     }
1914:Generated_Source\PSoC4/CyLib.c **** 
1915:Generated_Source\PSoC4/CyLib.c **** 
1916:Generated_Source\PSoC4/CyLib.c ****     /*******************************************************************************
1917:Generated_Source\PSoC4/CyLib.c ****     * Function Name: CySysClkPllConfigChangeAllowed
1918:Generated_Source\PSoC4/CyLib.c ****     ****************************************************************************//**
1919:Generated_Source\PSoC4/CyLib.c ****     *
1920:Generated_Source\PSoC4/CyLib.c ****     *  The function returns non-zero value if the specified PLL sources the System
1921:Generated_Source\PSoC4/CyLib.c ****     *  clock and the PLL is not in the bypass mode.
1922:Generated_Source\PSoC4/CyLib.c ****     *
1923:Generated_Source\PSoC4/CyLib.c ****     *  This API is available only for PSoC 4200L / 4100S with PLL devices.
1924:Generated_Source\PSoC4/CyLib.c ****     *
1925:Generated_Source\PSoC4/CyLib.c ****     *  \param PLL:
1926:Generated_Source\PSoC4/CyLib.c ****     *   0   PLL#0
1927:Generated_Source\PSoC4/CyLib.c ****     *   1   PLL#1
1928:Generated_Source\PSoC4/CyLib.c ****     *
1929:Generated_Source\PSoC4/CyLib.c ****     * \return Non-zero value when the specified PLL sources the System clock and
1930:Generated_Source\PSoC4/CyLib.c ****     * the PLL is not in the bypass mode.
1931:Generated_Source\PSoC4/CyLib.c ****     *
1932:Generated_Source\PSoC4/CyLib.c ****     *******************************************************************************/
1933:Generated_Source\PSoC4/CyLib.c ****     static cystatus CySysClkPllConfigChangeAllowed(uint32 pll)
1934:Generated_Source\PSoC4/CyLib.c ****     {
1935:Generated_Source\PSoC4/CyLib.c ****         uint32   pllBypassMode;
1936:Generated_Source\PSoC4/CyLib.c ****         uint32   sysclkSource;
1937:Generated_Source\PSoC4/CyLib.c ****         cystatus returnValue = CYRET_LOCKED;
1938:Generated_Source\PSoC4/CyLib.c **** 
1939:Generated_Source\PSoC4/CyLib.c ****         sysclkSource  = CySysClkGetSysclkSource();
1940:Generated_Source\PSoC4/CyLib.c ****         pllBypassMode = CySysClkPllGetBypassMode(pll);
1941:Generated_Source\PSoC4/CyLib.c **** 
1942:Generated_Source\PSoC4/CyLib.c ****         if ((CY_SYS_PLL_BYPASS_PLL_REF == pllBypassMode)             ||
1943:Generated_Source\PSoC4/CyLib.c ****             ((CY_SYS_CLK_HFCLK_PLL0 != sysclkSource) && (0u == pll))
1944:Generated_Source\PSoC4/CyLib.c ****         #if (CY_IP_SRSSV2)
1945:Generated_Source\PSoC4/CyLib.c ****             || ((CY_SYS_CLK_HFCLK_PLL1 != sysclkSource) && (1u == pll))
1946:Generated_Source\PSoC4/CyLib.c ****         #endif /* (CY_IP_SRSSV2) */
1947:Generated_Source\PSoC4/CyLib.c ****             )
1948:Generated_Source\PSoC4/CyLib.c ****         {
1949:Generated_Source\PSoC4/CyLib.c ****             returnValue = CYRET_SUCCESS;
1950:Generated_Source\PSoC4/CyLib.c ****         }
1951:Generated_Source\PSoC4/CyLib.c **** 
ARM GAS  C:\Users\Banni\AppData\Local\Temp\ccvFPZ8V.s 			page 54


1952:Generated_Source\PSoC4/CyLib.c ****         return (returnValue);
1953:Generated_Source\PSoC4/CyLib.c ****     }
1954:Generated_Source\PSoC4/CyLib.c **** 
1955:Generated_Source\PSoC4/CyLib.c **** 
1956:Generated_Source\PSoC4/CyLib.c ****     /*******************************************************************************
1957:Generated_Source\PSoC4/CyLib.c ****     * Function Name: CySysClkPllGetUnlockStatus
1958:Generated_Source\PSoC4/CyLib.c ****     ****************************************************************************//**
1959:Generated_Source\PSoC4/CyLib.c ****     *
1960:Generated_Source\PSoC4/CyLib.c ****     *  Returns a non-zero value if the specified PLL output was unlocked.
1961:Generated_Source\PSoC4/CyLib.c ****     *  The unlock status is an indicator that the PLL has lost a lock at least once
1962:Generated_Source\PSoC4/CyLib.c ****     *  during its operation. The unlock status is cleared once it is read using
1963:Generated_Source\PSoC4/CyLib.c ****     *  this API.
1964:Generated_Source\PSoC4/CyLib.c ****     *
1965:Generated_Source\PSoC4/CyLib.c ****     *  This API is available only for PSoC 4200L / 4100S with PLL devices.
1966:Generated_Source\PSoC4/CyLib.c ****     *
1967:Generated_Source\PSoC4/CyLib.c ****     *  \param PLL:
1968:Generated_Source\PSoC4/CyLib.c ****     *   0   PLL#0
1969:Generated_Source\PSoC4/CyLib.c ****     *   1   PLL#1
1970:Generated_Source\PSoC4/CyLib.c ****     *
1971:Generated_Source\PSoC4/CyLib.c ****     * \return Non-zero value when the specified PLL was unlocked.
1972:Generated_Source\PSoC4/CyLib.c ****     *
1973:Generated_Source\PSoC4/CyLib.c ****     *******************************************************************************/
1974:Generated_Source\PSoC4/CyLib.c ****     uint32 CySysClkPllGetUnlockStatus(uint32 pll)
1975:Generated_Source\PSoC4/CyLib.c ****     {
 1048              		.loc 1 1975 0
 1049              		.cfi_startproc
 1050              		@ args = 0, pretend = 0, frame = 0
 1051              		@ frame_needed = 0, uses_anonymous_args = 0
 1052              	.LVL92:
 1053 0000 70B5     		push	{r4, r5, r6, lr}
 1054              		.cfi_def_cfa_offset 16
 1055              		.cfi_offset 4, -16
 1056              		.cfi_offset 5, -12
 1057              		.cfi_offset 6, -8
 1058              		.cfi_offset 14, -4
 1059 0002 0400     		movs	r4, r0
 1060              	.LVL93:
1976:Generated_Source\PSoC4/CyLib.c ****         uint32 returnStatus = 0u;
1977:Generated_Source\PSoC4/CyLib.c ****         uint8  interruptState;
1978:Generated_Source\PSoC4/CyLib.c **** 
1979:Generated_Source\PSoC4/CyLib.c ****         interruptState = CyEnterCriticalSection();
 1061              		.loc 1 1979 0
 1062 0004 FFF7FEFF 		bl	CyEnterCriticalSection
 1063              	.LVL94:
1980:Generated_Source\PSoC4/CyLib.c **** 
1981:Generated_Source\PSoC4/CyLib.c ****         returnStatus = CY_SYS_CLK_PLL_BASE.pll[pll].test & CY_SYS_CLK_PLL_TEST_UNLOCK_OCCURRED_MASK
 1064              		.loc 1 1981 0
 1065 0008 6100     		lsls	r1, r4, #1
 1066 000a 0A19     		adds	r2, r1, r4
 1067 000c 9300     		lsls	r3, r2, #2
 1068 000e 084A     		ldr	r2, .L78
 1069 0010 9446     		mov	ip, r2
 1070 0012 6344     		add	r3, r3, ip
 1071 0014 9D68     		ldr	r5, [r3, #8]
 1072 0016 1022     		movs	r2, #16
 1073 0018 1540     		ands	r5, r2
 1074              	.LVL95:
ARM GAS  C:\Users\Banni\AppData\Local\Temp\ccvFPZ8V.s 			page 55


1982:Generated_Source\PSoC4/CyLib.c ****         CY_SYS_CLK_PLL_BASE.pll[pll].test |= CY_SYS_CLK_PLL_TEST_UNLOCK_OCCURRED_MASK;
 1075              		.loc 1 1982 0
 1076 001a 9B68     		ldr	r3, [r3, #8]
 1077 001c 1A43     		orrs	r2, r3
 1078 001e 0C19     		adds	r4, r1, r4
 1079              	.LVL96:
 1080 0020 A300     		lsls	r3, r4, #2
 1081 0022 6344     		add	r3, r3, ip
 1082 0024 9A60     		str	r2, [r3, #8]
1983:Generated_Source\PSoC4/CyLib.c **** 
1984:Generated_Source\PSoC4/CyLib.c ****         CyExitCriticalSection(interruptState);
 1083              		.loc 1 1984 0
 1084 0026 FFF7FEFF 		bl	CyExitCriticalSection
 1085              	.LVL97:
1985:Generated_Source\PSoC4/CyLib.c **** 
1986:Generated_Source\PSoC4/CyLib.c ****         return (returnStatus);
1987:Generated_Source\PSoC4/CyLib.c ****     }
 1086              		.loc 1 1987 0
 1087 002a 2800     		movs	r0, r5
 1088              		@ sp needed
 1089              	.LVL98:
 1090 002c 70BD     		pop	{r4, r5, r6, pc}
 1091              	.L79:
 1092 002e C046     		.align	2
 1093              	.L78:
 1094 0030 14002F40 		.word	1076822036
 1095              		.cfi_endproc
 1096              	.LFE24:
 1097              		.size	CySysClkPllGetUnlockStatus, .-CySysClkPllGetUnlockStatus
 1098              		.section	.text.CySysClkPllSetSource,"ax",%progbits
 1099              		.align	2
 1100              		.global	CySysClkPllSetSource
 1101              		.code	16
 1102              		.thumb_func
 1103              		.type	CySysClkPllSetSource, %function
 1104              	CySysClkPllSetSource:
 1105              	.LFB26:
1988:Generated_Source\PSoC4/CyLib.c **** 
1989:Generated_Source\PSoC4/CyLib.c **** 
1990:Generated_Source\PSoC4/CyLib.c ****     /*******************************************************************************
1991:Generated_Source\PSoC4/CyLib.c ****     * Function Name: CySysClkPllSetFrequency
1992:Generated_Source\PSoC4/CyLib.c ****     ****************************************************************************//**
1993:Generated_Source\PSoC4/CyLib.c ****     *
1994:Generated_Source\PSoC4/CyLib.c ****     * Configures either PLL#0 or PLL#1 for the requested input/output frequencies.
1995:Generated_Source\PSoC4/CyLib.c ****     * The input frequency is the frequency of the source to the PLL. The source is
1996:Generated_Source\PSoC4/CyLib.c ****     * set using the CySysClkPllSetSource() function.
1997:Generated_Source\PSoC4/CyLib.c ****     *
1998:Generated_Source\PSoC4/CyLib.c ****     * The PLL must not be the system clock source when calling this function. The
1999:Generated_Source\PSoC4/CyLib.c ****     * PLL output will glitch during this function call.
2000:Generated_Source\PSoC4/CyLib.c ****     *
2001:Generated_Source\PSoC4/CyLib.c ****     * This API is available only for PSoC 4200L / 4100S with PLL devices.
2002:Generated_Source\PSoC4/CyLib.c ****     *
2003:Generated_Source\PSoC4/CyLib.c ****     * \param pll:
2004:Generated_Source\PSoC4/CyLib.c ****     *  0   PLL#0
2005:Generated_Source\PSoC4/CyLib.c ****     *  1   PLL#1 (available only for PSoC 4200L)
2006:Generated_Source\PSoC4/CyLib.c ****     *
2007:Generated_Source\PSoC4/CyLib.c ****     * \param inputFreq The reference frequency in KHz. The valid range is from 1000 to 49152 KHz.
ARM GAS  C:\Users\Banni\AppData\Local\Temp\ccvFPZ8V.s 			page 56


2008:Generated_Source\PSoC4/CyLib.c ****     *
2009:Generated_Source\PSoC4/CyLib.c ****     * \param pllFreq The target frequency in KHz. The valid range is from 22500 to 49152 KHz.
2010:Generated_Source\PSoC4/CyLib.c ****     *
2011:Generated_Source\PSoC4/CyLib.c ****     * \param divider The output clock divider for the PLL:
2012:Generated_Source\PSoC4/CyLib.c ****     * CY_SYS_PLL_OUTPUT_DIVPASS    Pass Through
2013:Generated_Source\PSoC4/CyLib.c ****     * CY_SYS_PLL_OUTPUT_DIV2       Divide by 2
2014:Generated_Source\PSoC4/CyLib.c ****     * CY_SYS_PLL_OUTPUT_DIV4       Divide by 4
2015:Generated_Source\PSoC4/CyLib.c ****     * CY_SYS_PLL_OUTPUT_DIV8       Divide by 8
2016:Generated_Source\PSoC4/CyLib.c ****     *
2017:Generated_Source\PSoC4/CyLib.c ****     * \param freqTol The tolerance in ppm, 10 ppm is equal to 0.001%.
2018:Generated_Source\PSoC4/CyLib.c ****     *
2019:Generated_Source\PSoC4/CyLib.c ****     * \return CYRET_SUCCESS The PLL was successfully configured for the requested
2020:Generated_Source\PSoC4/CyLib.c ****     * frequency.
2021:Generated_Source\PSoC4/CyLib.c ****     *
2022:Generated_Source\PSoC4/CyLib.c ****     * \return CYRET_BAD_PARAM The PLL was not able to successfully configure for the
2023:Generated_Source\PSoC4/CyLib.c ****     * requested frequency.
2024:Generated_Source\PSoC4/CyLib.c ****     *
2025:Generated_Source\PSoC4/CyLib.c ****     *******************************************************************************/
2026:Generated_Source\PSoC4/CyLib.c ****     cystatus CySysClkPllSetFrequency(uint32 pll, uint32 inputFreq, uint32 pllFreq, uint32 divider, 
2027:Generated_Source\PSoC4/CyLib.c ****     {
2028:Generated_Source\PSoC4/CyLib.c ****         uint32 qMin;
2029:Generated_Source\PSoC4/CyLib.c ****         uint32 qMax;
2030:Generated_Source\PSoC4/CyLib.c **** 
2031:Generated_Source\PSoC4/CyLib.c ****         uint32 qVal = CY_SYS_CLK_PLL_INVALID;
2032:Generated_Source\PSoC4/CyLib.c ****         uint32 pVal = CY_SYS_CLK_PLL_INVALID;
2033:Generated_Source\PSoC4/CyLib.c **** 
2034:Generated_Source\PSoC4/CyLib.c ****         uint32 q;
2035:Generated_Source\PSoC4/CyLib.c ****         uint32 p;
2036:Generated_Source\PSoC4/CyLib.c **** 
2037:Generated_Source\PSoC4/CyLib.c ****         uint32 fvco;
2038:Generated_Source\PSoC4/CyLib.c ****         int32 ferr;
2039:Generated_Source\PSoC4/CyLib.c **** 
2040:Generated_Source\PSoC4/CyLib.c ****         cystatus tmp;
2041:Generated_Source\PSoC4/CyLib.c ****         cystatus returnStatus = CYRET_BAD_PARAM;
2042:Generated_Source\PSoC4/CyLib.c **** 
2043:Generated_Source\PSoC4/CyLib.c **** 
2044:Generated_Source\PSoC4/CyLib.c ****         tmp = CySysClkPllConfigChangeAllowed(pll);
2045:Generated_Source\PSoC4/CyLib.c **** 
2046:Generated_Source\PSoC4/CyLib.c ****         if ((pll < CY_IP_PLL_NR) &&
2047:Generated_Source\PSoC4/CyLib.c ****             (inputFreq  >= CY_SYS_CLK_PLL_INPUT_FREQ_MIN )  && (inputFreq  <= CY_SYS_CLK_PLL_INPUT_
2048:Generated_Source\PSoC4/CyLib.c ****             (pllFreq >= CY_SYS_CLK_PLL_OUTPUT_FREQ_MIN ) && (pllFreq <= CY_SYS_CLK_PLL_OUTPUT_FREQ_
2049:Generated_Source\PSoC4/CyLib.c ****             (divider <= CY_SYS_PLL_OUTPUT_DIV8) &&
2050:Generated_Source\PSoC4/CyLib.c ****             (CYRET_SUCCESS == tmp))
2051:Generated_Source\PSoC4/CyLib.c ****         {
2052:Generated_Source\PSoC4/CyLib.c **** 
2053:Generated_Source\PSoC4/CyLib.c ****             /* Minimum feed forward loop divisor */
2054:Generated_Source\PSoC4/CyLib.c ****             qMin = (inputFreq + (CY_SYS_CLK_PLL_FPFDMAX - 1u)) / CY_SYS_CLK_PLL_FPFDMAX;
2055:Generated_Source\PSoC4/CyLib.c ****             qMin = (qMin < CY_SYS_CLK_PLL_QMINIP) ? CY_SYS_CLK_PLL_QMINIP : qMin;
2056:Generated_Source\PSoC4/CyLib.c **** 
2057:Generated_Source\PSoC4/CyLib.c ****             /* Maximum feed forward loop divisor */
2058:Generated_Source\PSoC4/CyLib.c ****             qMax = inputFreq / CY_SYS_CLK_PLL_FPFDMIN;
2059:Generated_Source\PSoC4/CyLib.c ****             qMax = (qMax > CY_SYS_CLK_PLL_QMAXIP) ? CY_SYS_CLK_PLL_QMAXIP : qMax;
2060:Generated_Source\PSoC4/CyLib.c **** 
2061:Generated_Source\PSoC4/CyLib.c ****             if (qMin <= qMax)
2062:Generated_Source\PSoC4/CyLib.c ****             {
2063:Generated_Source\PSoC4/CyLib.c ****                 for(q = qMin; q <= qMax; q++)
2064:Generated_Source\PSoC4/CyLib.c ****                 {
ARM GAS  C:\Users\Banni\AppData\Local\Temp\ccvFPZ8V.s 			page 57


2065:Generated_Source\PSoC4/CyLib.c ****                     /* Solve for the feedback divisor value */
2066:Generated_Source\PSoC4/CyLib.c **** 
2067:Generated_Source\PSoC4/CyLib.c ****                     /* INT((pllFreq * q ) / inputFreq), where INT is normal rounding  */
2068:Generated_Source\PSoC4/CyLib.c ****                     p = ((pllFreq * q) + (inputFreq / 2u)) / inputFreq;
2069:Generated_Source\PSoC4/CyLib.c **** 
2070:Generated_Source\PSoC4/CyLib.c ****                     /* Calculate the actual VCO frequency (FVCO) */
2071:Generated_Source\PSoC4/CyLib.c ****                     fvco = ((inputFreq * p) / q);
2072:Generated_Source\PSoC4/CyLib.c **** 
2073:Generated_Source\PSoC4/CyLib.c ****                     /* Calculate the frequency error (FERR) */
2074:Generated_Source\PSoC4/CyLib.c ****                     ferr = ((1000000 * ((int32) fvco - (int32) pllFreq))/ (int32) pllFreq);
2075:Generated_Source\PSoC4/CyLib.c **** 
2076:Generated_Source\PSoC4/CyLib.c ****                     /* Bound check the frequency error and decide next action */
2077:Generated_Source\PSoC4/CyLib.c ****                     if ((( -1 * (int32) freqTol) <= ferr) && (ferr <= (int32) freqTol))
2078:Generated_Source\PSoC4/CyLib.c ****                     {
2079:Generated_Source\PSoC4/CyLib.c ****                         qVal = q;
2080:Generated_Source\PSoC4/CyLib.c ****                         pVal = p;
2081:Generated_Source\PSoC4/CyLib.c ****                         break;
2082:Generated_Source\PSoC4/CyLib.c ****                     }
2083:Generated_Source\PSoC4/CyLib.c ****                 }
2084:Generated_Source\PSoC4/CyLib.c **** 
2085:Generated_Source\PSoC4/CyLib.c **** 
2086:Generated_Source\PSoC4/CyLib.c ****                 if ((pVal != CY_SYS_CLK_PLL_INVALID) && (qVal != CY_SYS_CLK_PLL_INVALID))
2087:Generated_Source\PSoC4/CyLib.c ****                 {
2088:Generated_Source\PSoC4/CyLib.c ****                     if (CySysClkPllSetPQ(pll, pVal, qVal, CY_SYS_CLK_PLL_CURRENT_DEFAULT) == CYRET_
2089:Generated_Source\PSoC4/CyLib.c ****                     {
2090:Generated_Source\PSoC4/CyLib.c ****                         returnStatus = CySysClkPllSetOutputDivider(pll, divider);
2091:Generated_Source\PSoC4/CyLib.c ****                     }
2092:Generated_Source\PSoC4/CyLib.c ****                 }
2093:Generated_Source\PSoC4/CyLib.c ****             }
2094:Generated_Source\PSoC4/CyLib.c **** 
2095:Generated_Source\PSoC4/CyLib.c ****         }
2096:Generated_Source\PSoC4/CyLib.c **** 
2097:Generated_Source\PSoC4/CyLib.c ****         return (returnStatus);
2098:Generated_Source\PSoC4/CyLib.c ****     }
2099:Generated_Source\PSoC4/CyLib.c **** 
2100:Generated_Source\PSoC4/CyLib.c ****     /*******************************************************************************
2101:Generated_Source\PSoC4/CyLib.c ****     * Function Name: CySysClkPllSetSource
2102:Generated_Source\PSoC4/CyLib.c ****     ****************************************************************************//**
2103:Generated_Source\PSoC4/CyLib.c ****     *
2104:Generated_Source\PSoC4/CyLib.c ****     *  Sets the input clock source to the PLL. The PLL must be disabled before
2105:Generated_Source\PSoC4/CyLib.c ****     *  calling this function.
2106:Generated_Source\PSoC4/CyLib.c ****     *
2107:Generated_Source\PSoC4/CyLib.c ****     *  This API is available only for PSoC 4200L / 4100S with PLL devices.
2108:Generated_Source\PSoC4/CyLib.c ****     *
2109:Generated_Source\PSoC4/CyLib.c ****     *  \param PLL:
2110:Generated_Source\PSoC4/CyLib.c ****     *  0   PLL#0
2111:Generated_Source\PSoC4/CyLib.c ****     *  1   PLL#1 (available only for PSoC 4200L)
2112:Generated_Source\PSoC4/CyLib.c ****     *
2113:Generated_Source\PSoC4/CyLib.c ****     * \param source:
2114:Generated_Source\PSoC4/CyLib.c ****     *  CY_SYS_PLL_SOURCE_IMO        IMO
2115:Generated_Source\PSoC4/CyLib.c ****     *  CY_SYS_PLL_SOURCE_EXTCLK     External Clock (available only for PSoC 4200L)
2116:Generated_Source\PSoC4/CyLib.c ****     *  CY_SYS_PLL_SOURCE_ECO        ECO
2117:Generated_Source\PSoC4/CyLib.c ****     *  CY_SYS_PLL_SOURCE_DSI0       DSI_OUT[0] (available only for PSoC 4200L)
2118:Generated_Source\PSoC4/CyLib.c ****     *  CY_SYS_PLL_SOURCE_DSI1       DSI_OUT[1] (available only for PSoC 4200L)
2119:Generated_Source\PSoC4/CyLib.c ****     *  CY_SYS_PLL_SOURCE_DSI2       DSI_OUT[2] (available only for PSoC 4200L)
2120:Generated_Source\PSoC4/CyLib.c ****     *  CY_SYS_PLL_SOURCE_DSI3       DSI_OUT[3] (available only for PSoC 4200L)
2121:Generated_Source\PSoC4/CyLib.c ****     *
ARM GAS  C:\Users\Banni\AppData\Local\Temp\ccvFPZ8V.s 			page 58


2122:Generated_Source\PSoC4/CyLib.c ****     *******************************************************************************/
2123:Generated_Source\PSoC4/CyLib.c ****     void CySysClkPllSetSource(uint32 pll, uint32 source)
2124:Generated_Source\PSoC4/CyLib.c ****     {
 1106              		.loc 1 2124 0
 1107              		.cfi_startproc
 1108              		@ args = 0, pretend = 0, frame = 0
 1109              		@ frame_needed = 0, uses_anonymous_args = 0
 1110              	.LVL99:
 1111 0000 70B5     		push	{r4, r5, r6, lr}
 1112              		.cfi_def_cfa_offset 16
 1113              		.cfi_offset 4, -16
 1114              		.cfi_offset 5, -12
 1115              		.cfi_offset 6, -8
 1116              		.cfi_offset 14, -4
 1117 0002 0500     		movs	r5, r0
 1118 0004 0C00     		movs	r4, r1
 1119              	.LVL100:
2125:Generated_Source\PSoC4/CyLib.c ****         uint32 regTmp;
2126:Generated_Source\PSoC4/CyLib.c ****         uint8  interruptState;
2127:Generated_Source\PSoC4/CyLib.c ****         
2128:Generated_Source\PSoC4/CyLib.c ****         #if (CY_IP_SRSSLT)
2129:Generated_Source\PSoC4/CyLib.c ****             uint8 i = 0u;
2130:Generated_Source\PSoC4/CyLib.c ****         #endif /* (CY_IP_SRSSLT) */
2131:Generated_Source\PSoC4/CyLib.c **** 
2132:Generated_Source\PSoC4/CyLib.c ****         interruptState = CyEnterCriticalSection();
 1120              		.loc 1 2132 0
 1121 0006 FFF7FEFF 		bl	CyEnterCriticalSection
 1122              	.LVL101:
2133:Generated_Source\PSoC4/CyLib.c **** 
2134:Generated_Source\PSoC4/CyLib.c ****         if (pll < CY_IP_PLL_NR)
 1123              		.loc 1 2134 0
 1124 000a 002D     		cmp	r5, #0
 1125 000c 21D1     		bne	.L81
2135:Generated_Source\PSoC4/CyLib.c ****         {
2136:Generated_Source\PSoC4/CyLib.c ****             #if(CY_IP_SRSSV2)
2137:Generated_Source\PSoC4/CyLib.c ****                 regTmp = CY_SYS_CLK_SELECT_REG & (uint32) ~CY_SYS_CLK_SELECT_PLL_MASK(pll);
2138:Generated_Source\PSoC4/CyLib.c ****                 regTmp |= ((source << CY_SYS_CLK_SELECT_PLL_SHIFT(pll)) & CY_SYS_CLK_SELECT_PLL_MAS
2139:Generated_Source\PSoC4/CyLib.c ****                 CY_SYS_CLK_SELECT_REG = regTmp;
2140:Generated_Source\PSoC4/CyLib.c ****             #else
2141:Generated_Source\PSoC4/CyLib.c ****                 regTmp = CY_SYS_ECO_CLK_SELECT_REG & (uint32) ~CY_SYS_CLK_SELECT_PLL0_MASK;
 1126              		.loc 1 2141 0
 1127 000e 1249     		ldr	r1, .L84
 1128 0010 0A68     		ldr	r2, [r1]
 1129 0012 0235     		adds	r5, r5, #2
 1130              	.LVL102:
 1131 0014 AA43     		bics	r2, r5
 1132              	.LVL103:
2142:Generated_Source\PSoC4/CyLib.c ****                 regTmp |= ((source << CY_SYS_CLK_SELECT_PLL0_SHIFT) & CY_SYS_CLK_SELECT_PLL0_MASK);
 1133              		.loc 1 2142 0
 1134 0016 6300     		lsls	r3, r4, #1
 1135 0018 2C00     		movs	r4, r5
 1136              	.LVL104:
 1137 001a 1C40     		ands	r4, r3
 1138 001c 1443     		orrs	r4, r2
 1139              	.LVL105:
2143:Generated_Source\PSoC4/CyLib.c ****                 CY_SYS_ECO_CLK_SELECT_REG = regTmp;
 1140              		.loc 1 2143 0
ARM GAS  C:\Users\Banni\AppData\Local\Temp\ccvFPZ8V.s 			page 59


 1141 001e 0C60     		str	r4, [r1]
2144:Generated_Source\PSoC4/CyLib.c ****                 
2145:Generated_Source\PSoC4/CyLib.c ****                 /* Generate clock sequence to change clock source in CY_SYS_ECO_CLK_SELECT_REG */
2146:Generated_Source\PSoC4/CyLib.c ****                 CY_SYS_EXCO_PGM_CLK_REG |= CY_SYS_EXCO_PGM_CLK_ENABLE_MASK;
 1142              		.loc 1 2146 0
 1143 0020 0E4A     		ldr	r2, .L84+4
 1144 0022 1368     		ldr	r3, [r2]
 1145 0024 8021     		movs	r1, #128
 1146 0026 0906     		lsls	r1, r1, #24
 1147 0028 0B43     		orrs	r3, r1
 1148 002a 1360     		str	r3, [r2]
2147:Generated_Source\PSoC4/CyLib.c ****                 
2148:Generated_Source\PSoC4/CyLib.c ****                 for(i = 0u; i < CY_SYS_EXCO_PGM_CLK_SEQ_GENERATOR; i++)
 1149              		.loc 1 2148 0
 1150 002c 0023     		movs	r3, #0
 1151 002e 09E0     		b	.L82
 1152              	.LVL106:
 1153              	.L83:
2149:Generated_Source\PSoC4/CyLib.c ****                 {
2150:Generated_Source\PSoC4/CyLib.c ****                     CY_SYS_EXCO_PGM_CLK_REG |= CY_SYS_EXCO_PGM_CLK_CLK_ECO_MASK;
 1154              		.loc 1 2150 0 discriminator 3
 1155 0030 0A4A     		ldr	r2, .L84+4
 1156 0032 1168     		ldr	r1, [r2]
 1157 0034 0224     		movs	r4, #2
 1158 0036 2143     		orrs	r1, r4
 1159 0038 1160     		str	r1, [r2]
2151:Generated_Source\PSoC4/CyLib.c ****                     CY_SYS_EXCO_PGM_CLK_REG &= ~CY_SYS_EXCO_PGM_CLK_CLK_ECO_MASK;
 1160              		.loc 1 2151 0 discriminator 3
 1161 003a 1168     		ldr	r1, [r2]
 1162 003c A143     		bics	r1, r4
 1163 003e 1160     		str	r1, [r2]
2148:Generated_Source\PSoC4/CyLib.c ****                 {
 1164              		.loc 1 2148 0 discriminator 3
 1165 0040 0133     		adds	r3, r3, #1
 1166              	.LVL107:
 1167 0042 DBB2     		uxtb	r3, r3
 1168              	.LVL108:
 1169              	.L82:
2148:Generated_Source\PSoC4/CyLib.c ****                 {
 1170              		.loc 1 2148 0 is_stmt 0 discriminator 1
 1171 0044 042B     		cmp	r3, #4
 1172 0046 F3D9     		bls	.L83
2152:Generated_Source\PSoC4/CyLib.c ****                 }
2153:Generated_Source\PSoC4/CyLib.c ****                 
2154:Generated_Source\PSoC4/CyLib.c ****                 CY_SYS_EXCO_PGM_CLK_REG &= ~CY_SYS_EXCO_PGM_CLK_ENABLE_MASK;
 1173              		.loc 1 2154 0 is_stmt 1
 1174 0048 044A     		ldr	r2, .L84+4
 1175 004a 1368     		ldr	r3, [r2]
 1176              	.LVL109:
 1177 004c 5B00     		lsls	r3, r3, #1
 1178 004e 5B08     		lsrs	r3, r3, #1
 1179 0050 1360     		str	r3, [r2]
 1180              	.LVL110:
 1181              	.L81:
2155:Generated_Source\PSoC4/CyLib.c **** 
2156:Generated_Source\PSoC4/CyLib.c ****             #endif /* (CY_IP_SRSSV2) */
2157:Generated_Source\PSoC4/CyLib.c ****         }
ARM GAS  C:\Users\Banni\AppData\Local\Temp\ccvFPZ8V.s 			page 60


2158:Generated_Source\PSoC4/CyLib.c **** 
2159:Generated_Source\PSoC4/CyLib.c ****         CyExitCriticalSection(interruptState);
 1182              		.loc 1 2159 0
 1183 0052 FFF7FEFF 		bl	CyExitCriticalSection
 1184              	.LVL111:
2160:Generated_Source\PSoC4/CyLib.c ****     }
 1185              		.loc 1 2160 0
 1186              		@ sp needed
 1187 0056 70BD     		pop	{r4, r5, r6, pc}
 1188              	.L85:
 1189              		.align	2
 1190              	.L84:
 1191 0058 00002F40 		.word	1076822016
 1192 005c 20002F40 		.word	1076822048
 1193              		.cfi_endproc
 1194              	.LFE26:
 1195              		.size	CySysClkPllSetSource, .-CySysClkPllSetSource
 1196              		.section	.text.CySysGetResetReason,"ax",%progbits
 1197              		.align	2
 1198              		.global	CySysGetResetReason
 1199              		.code	16
 1200              		.thumb_func
 1201              		.type	CySysGetResetReason, %function
 1202              	CySysGetResetReason:
 1203              	.LFB28:
2161:Generated_Source\PSoC4/CyLib.c **** 
2162:Generated_Source\PSoC4/CyLib.c ****     
2163:Generated_Source\PSoC4/CyLib.c ****     /*******************************************************************************
2164:Generated_Source\PSoC4/CyLib.c ****     * Function Name: CySysClkPllSetOutputDivider
2165:Generated_Source\PSoC4/CyLib.c ****     ****************************************************************************//**
2166:Generated_Source\PSoC4/CyLib.c ****     *
2167:Generated_Source\PSoC4/CyLib.c ****     *  Sets the output clock divider for the PLL.
2168:Generated_Source\PSoC4/CyLib.c ****     *
2169:Generated_Source\PSoC4/CyLib.c ****     *  The PLL must not be the System Clock source when calling this function. The
2170:Generated_Source\PSoC4/CyLib.c ****     *  PLL output will glitch during this function call.
2171:Generated_Source\PSoC4/CyLib.c ****     *
2172:Generated_Source\PSoC4/CyLib.c ****     *  This API is available only for PSoC 4200L / 4100S with PLL devices.
2173:Generated_Source\PSoC4/CyLib.c ****     *
2174:Generated_Source\PSoC4/CyLib.c ****     *  \param PLL:
2175:Generated_Source\PSoC4/CyLib.c ****     *   0   PLL#0
2176:Generated_Source\PSoC4/CyLib.c ****     *   1   PLL#1 (available only for PSoC 4200L)
2177:Generated_Source\PSoC4/CyLib.c ****     *
2178:Generated_Source\PSoC4/CyLib.c ****     * \param divider:
2179:Generated_Source\PSoC4/CyLib.c ****     *  CY_SYS_PLL_OUTPUT_DIVPASS    Pass through
2180:Generated_Source\PSoC4/CyLib.c ****     *  CY_SYS_PLL_OUTPUT_DIV2       Divide by 2
2181:Generated_Source\PSoC4/CyLib.c ****     *  CY_SYS_PLL_OUTPUT_DIV4       Divide by 4
2182:Generated_Source\PSoC4/CyLib.c ****     *  CY_SYS_PLL_OUTPUT_DIV8       Divide by 8
2183:Generated_Source\PSoC4/CyLib.c ****     *
2184:Generated_Source\PSoC4/CyLib.c ****     * \return \ref CYRET_SUCCESS    Completed successfully.
2185:Generated_Source\PSoC4/CyLib.c ****     * \return \ref CYRET_BAD_PARAM  The parameters are out of range or the
2186:Generated_Source\PSoC4/CyLib.c ****     * specified PLL sources the System clock.
2187:Generated_Source\PSoC4/CyLib.c ****     *
2188:Generated_Source\PSoC4/CyLib.c ****     *******************************************************************************/
2189:Generated_Source\PSoC4/CyLib.c ****     cystatus CySysClkPllSetOutputDivider(uint32 pll, uint32 divider)
2190:Generated_Source\PSoC4/CyLib.c ****     {
2191:Generated_Source\PSoC4/CyLib.c ****         uint32   tmpReg;
2192:Generated_Source\PSoC4/CyLib.c ****         uint8    interruptState;
ARM GAS  C:\Users\Banni\AppData\Local\Temp\ccvFPZ8V.s 			page 61


2193:Generated_Source\PSoC4/CyLib.c ****         cystatus returnStatus = CYRET_BAD_PARAM;
2194:Generated_Source\PSoC4/CyLib.c ****         cystatus tmp;
2195:Generated_Source\PSoC4/CyLib.c **** 
2196:Generated_Source\PSoC4/CyLib.c **** 
2197:Generated_Source\PSoC4/CyLib.c ****         interruptState = CyEnterCriticalSection();
2198:Generated_Source\PSoC4/CyLib.c **** 
2199:Generated_Source\PSoC4/CyLib.c ****         tmp = CySysClkPllConfigChangeAllowed(pll);
2200:Generated_Source\PSoC4/CyLib.c **** 
2201:Generated_Source\PSoC4/CyLib.c ****         if ((pll < CY_IP_PLL_NR) && (CYRET_SUCCESS == tmp) && (divider <= CY_SYS_PLL_OUTPUT_DIV8))
2202:Generated_Source\PSoC4/CyLib.c ****         {
2203:Generated_Source\PSoC4/CyLib.c ****             tmpReg  = CY_SYS_CLK_PLL_BASE.pll[pll].config & (uint32) ~(CY_SYS_CLK_PLL_CONFIG_OUTPUT
2204:Generated_Source\PSoC4/CyLib.c ****             tmpReg |= ((divider << CY_SYS_CLK_PLL_CONFIG_OUTPUT_DIV_SHIFT) & CY_SYS_CLK_PLL_CONFIG_
2205:Generated_Source\PSoC4/CyLib.c **** 
2206:Generated_Source\PSoC4/CyLib.c ****             CY_SYS_CLK_PLL_BASE.pll[pll].config = tmpReg;
2207:Generated_Source\PSoC4/CyLib.c **** 
2208:Generated_Source\PSoC4/CyLib.c ****             returnStatus = CYRET_SUCCESS;
2209:Generated_Source\PSoC4/CyLib.c ****         }
2210:Generated_Source\PSoC4/CyLib.c **** 
2211:Generated_Source\PSoC4/CyLib.c ****         CyExitCriticalSection(interruptState);
2212:Generated_Source\PSoC4/CyLib.c **** 
2213:Generated_Source\PSoC4/CyLib.c ****         return (returnStatus);
2214:Generated_Source\PSoC4/CyLib.c ****     }
2215:Generated_Source\PSoC4/CyLib.c **** #endif /* (CY_IP_PLL) */
2216:Generated_Source\PSoC4/CyLib.c **** 
2217:Generated_Source\PSoC4/CyLib.c **** 
2218:Generated_Source\PSoC4/CyLib.c **** #if(CY_IP_SRSSV2)
2219:Generated_Source\PSoC4/CyLib.c **** 
2220:Generated_Source\PSoC4/CyLib.c ****     /*******************************************************************************
2221:Generated_Source\PSoC4/CyLib.c ****     * Function Name: CySysLvdEnable
2222:Generated_Source\PSoC4/CyLib.c ****     ****************************************************************************//**
2223:Generated_Source\PSoC4/CyLib.c ****     *
2224:Generated_Source\PSoC4/CyLib.c ****     *  Enables the output of the low-voltage monitor when Vddd is at or below the
2225:Generated_Source\PSoC4/CyLib.c ****     *  trip point, configures the device to generate an interrupt, and sets the
2226:Generated_Source\PSoC4/CyLib.c ****     *  voltage trip level.
2227:Generated_Source\PSoC4/CyLib.c ****     *
2228:Generated_Source\PSoC4/CyLib.c ****     *  \param threshold: Threshold selection for Low Voltage Detect circuit.
2229:Generated_Source\PSoC4/CyLib.c ****     *  Threshold variation is +/- 2.5% from these typical voltage choices.
2230:Generated_Source\PSoC4/CyLib.c ****     *         Define                     Voltage threshold
2231:Generated_Source\PSoC4/CyLib.c ****     *    CY_LVD_THRESHOLD_1_75_V       1.7500 V
2232:Generated_Source\PSoC4/CyLib.c ****     *    CY_LVD_THRESHOLD_1_80_V       1.8000 V
2233:Generated_Source\PSoC4/CyLib.c ****     *    CY_LVD_THRESHOLD_1_90_V       1.9000 V
2234:Generated_Source\PSoC4/CyLib.c ****     *    CY_LVD_THRESHOLD_2_00_V       2.0000 V
2235:Generated_Source\PSoC4/CyLib.c ****     *    CY_LVD_THRESHOLD_2_10_V       2.1000 V
2236:Generated_Source\PSoC4/CyLib.c ****     *    CY_LVD_THRESHOLD_2_20_V       2.2000 V
2237:Generated_Source\PSoC4/CyLib.c ****     *    CY_LVD_THRESHOLD_2_30_V       2.3000 V
2238:Generated_Source\PSoC4/CyLib.c ****     *    CY_LVD_THRESHOLD_2_40_V       2.4000 V
2239:Generated_Source\PSoC4/CyLib.c ****     *    CY_LVD_THRESHOLD_2_50_V       2.5000 V
2240:Generated_Source\PSoC4/CyLib.c ****     *    CY_LVD_THRESHOLD_2_60_V       2.6000 V
2241:Generated_Source\PSoC4/CyLib.c ****     *    CY_LVD_THRESHOLD_2_70_V       2.7000 V
2242:Generated_Source\PSoC4/CyLib.c ****     *    CY_LVD_THRESHOLD_2_80_V       2.8000 V
2243:Generated_Source\PSoC4/CyLib.c ****     *    CY_LVD_THRESHOLD_2_90_V       2.9000 V
2244:Generated_Source\PSoC4/CyLib.c ****     *    CY_LVD_THRESHOLD_3_00_V       3.0000 V
2245:Generated_Source\PSoC4/CyLib.c ****     *    CY_LVD_THRESHOLD_3_20_V       3.2000 V
2246:Generated_Source\PSoC4/CyLib.c ****     *    CY_LVD_THRESHOLD_4_50_V       4.5000 V
2247:Generated_Source\PSoC4/CyLib.c ****     *
2248:Generated_Source\PSoC4/CyLib.c ****     *******************************************************************************/
2249:Generated_Source\PSoC4/CyLib.c ****     void CySysLvdEnable(uint32 threshold)
ARM GAS  C:\Users\Banni\AppData\Local\Temp\ccvFPZ8V.s 			page 62


2250:Generated_Source\PSoC4/CyLib.c ****     {
2251:Generated_Source\PSoC4/CyLib.c ****         /* Prevent propagating a false interrupt */
2252:Generated_Source\PSoC4/CyLib.c ****         CY_LVD_PWR_INTR_MASK_REG   &= (uint32) ~CY_LVD_PROPAGATE_INT_TO_CPU;
2253:Generated_Source\PSoC4/CyLib.c **** 
2254:Generated_Source\PSoC4/CyLib.c ****         /* Set specified threshold */
2255:Generated_Source\PSoC4/CyLib.c ****         CY_LVD_PWR_VMON_CONFIG_REG = (CY_LVD_PWR_VMON_CONFIG_REG & ~CY_LVD_PWR_VMON_CONFIG_LVD_SEL_
2256:Generated_Source\PSoC4/CyLib.c ****                 ((threshold << CY_LVD_PWR_VMON_CONFIG_LVD_SEL_SHIFT) & CY_LVD_PWR_VMON_CONFIG_LVD_S
2257:Generated_Source\PSoC4/CyLib.c **** 
2258:Generated_Source\PSoC4/CyLib.c ****         /* Enable the LVD. This may cause a false LVD event. */
2259:Generated_Source\PSoC4/CyLib.c ****         CY_LVD_PWR_VMON_CONFIG_REG |= CY_LVD_PWR_VMON_CONFIG_LVD_EN;
2260:Generated_Source\PSoC4/CyLib.c **** 
2261:Generated_Source\PSoC4/CyLib.c ****         /* Wait for the circuit to stabilize */
2262:Generated_Source\PSoC4/CyLib.c ****         CyDelayUs(CY_LVD_STABILIZE_TIMEOUT_US);
2263:Generated_Source\PSoC4/CyLib.c **** 
2264:Generated_Source\PSoC4/CyLib.c ****         /* Clear the false event */
2265:Generated_Source\PSoC4/CyLib.c ****         CySysLvdClearInterrupt();
2266:Generated_Source\PSoC4/CyLib.c **** 
2267:Generated_Source\PSoC4/CyLib.c ****         /* Unmask the interrupt */
2268:Generated_Source\PSoC4/CyLib.c ****         CY_LVD_PWR_INTR_MASK_REG   |= CY_LVD_PROPAGATE_INT_TO_CPU;
2269:Generated_Source\PSoC4/CyLib.c ****     }
2270:Generated_Source\PSoC4/CyLib.c **** 
2271:Generated_Source\PSoC4/CyLib.c **** 
2272:Generated_Source\PSoC4/CyLib.c ****     /*******************************************************************************
2273:Generated_Source\PSoC4/CyLib.c ****     * Function Name: CySysLvdDisable
2274:Generated_Source\PSoC4/CyLib.c ****     ****************************************************************************//**
2275:Generated_Source\PSoC4/CyLib.c ****     *
2276:Generated_Source\PSoC4/CyLib.c ****     *  Disables the low voltage detection. A low voltage interrupt is disabled.
2277:Generated_Source\PSoC4/CyLib.c ****     *
2278:Generated_Source\PSoC4/CyLib.c ****     *******************************************************************************/
2279:Generated_Source\PSoC4/CyLib.c ****     void CySysLvdDisable(void)
2280:Generated_Source\PSoC4/CyLib.c ****     {
2281:Generated_Source\PSoC4/CyLib.c ****         CY_LVD_PWR_INTR_MASK_REG   &= ~CY_LVD_PROPAGATE_INT_TO_CPU;
2282:Generated_Source\PSoC4/CyLib.c ****         CY_LVD_PWR_VMON_CONFIG_REG &= ~CY_LVD_PWR_VMON_CONFIG_LVD_EN;
2283:Generated_Source\PSoC4/CyLib.c ****     }
2284:Generated_Source\PSoC4/CyLib.c **** 
2285:Generated_Source\PSoC4/CyLib.c **** 
2286:Generated_Source\PSoC4/CyLib.c ****     /*******************************************************************************
2287:Generated_Source\PSoC4/CyLib.c ****     * Function Name: CySysLvdGetInterruptSource
2288:Generated_Source\PSoC4/CyLib.c ****     ****************************************************************************//**
2289:Generated_Source\PSoC4/CyLib.c ****     *
2290:Generated_Source\PSoC4/CyLib.c ****     *  Gets the low voltage detection interrupt status (without clearing).
2291:Generated_Source\PSoC4/CyLib.c ****     *
2292:Generated_Source\PSoC4/CyLib.c ****     * \return
2293:Generated_Source\PSoC4/CyLib.c ****     *  Interrupt request value:
2294:Generated_Source\PSoC4/CyLib.c ****     *    CY_SYS_LVD_INT - Indicates an Low Voltage Detect interrupt
2295:Generated_Source\PSoC4/CyLib.c ****     *
2296:Generated_Source\PSoC4/CyLib.c ****     *******************************************************************************/
2297:Generated_Source\PSoC4/CyLib.c ****     uint32 CySysLvdGetInterruptSource(void)
2298:Generated_Source\PSoC4/CyLib.c ****     {
2299:Generated_Source\PSoC4/CyLib.c ****         return (CY_LVD_PWR_INTR_REG & CY_SYS_LVD_INT);
2300:Generated_Source\PSoC4/CyLib.c ****     }
2301:Generated_Source\PSoC4/CyLib.c **** 
2302:Generated_Source\PSoC4/CyLib.c **** 
2303:Generated_Source\PSoC4/CyLib.c ****     /*******************************************************************************
2304:Generated_Source\PSoC4/CyLib.c ****     * Function Name: CySysLvdClearInterrupt
2305:Generated_Source\PSoC4/CyLib.c ****     ****************************************************************************//**
2306:Generated_Source\PSoC4/CyLib.c ****     *
ARM GAS  C:\Users\Banni\AppData\Local\Temp\ccvFPZ8V.s 			page 63


2307:Generated_Source\PSoC4/CyLib.c ****     *  Clears the low voltage detection interrupt status.
2308:Generated_Source\PSoC4/CyLib.c ****     *
2309:Generated_Source\PSoC4/CyLib.c ****     * \return
2310:Generated_Source\PSoC4/CyLib.c ****     *  None
2311:Generated_Source\PSoC4/CyLib.c ****     *
2312:Generated_Source\PSoC4/CyLib.c ****     *******************************************************************************/
2313:Generated_Source\PSoC4/CyLib.c ****     void CySysLvdClearInterrupt(void)
2314:Generated_Source\PSoC4/CyLib.c ****     {
2315:Generated_Source\PSoC4/CyLib.c ****         CY_LVD_PWR_INTR_REG = CY_SYS_LVD_INT;
2316:Generated_Source\PSoC4/CyLib.c ****     }
2317:Generated_Source\PSoC4/CyLib.c **** 
2318:Generated_Source\PSoC4/CyLib.c **** #endif /* (CY_IP_SRSSV2) */
2319:Generated_Source\PSoC4/CyLib.c **** 
2320:Generated_Source\PSoC4/CyLib.c **** 
2321:Generated_Source\PSoC4/CyLib.c **** /*******************************************************************************
2322:Generated_Source\PSoC4/CyLib.c **** * Function Name: CySysGetResetReason
2323:Generated_Source\PSoC4/CyLib.c **** ****************************************************************************//**
2324:Generated_Source\PSoC4/CyLib.c **** *
2325:Generated_Source\PSoC4/CyLib.c **** *  Reports the cause for the latest reset(s) that occurred in the system. All
2326:Generated_Source\PSoC4/CyLib.c **** *  the bits in the RES_CAUSE register assert when the corresponding reset cause
2327:Generated_Source\PSoC4/CyLib.c **** *  occurs and must be cleared by the firmware. These bits are cleared by the
2328:Generated_Source\PSoC4/CyLib.c **** *  hardware only during XRES, POR, or a detected brown-out.
2329:Generated_Source\PSoC4/CyLib.c **** *
2330:Generated_Source\PSoC4/CyLib.c **** *  \param reason: bits in the RES_CAUSE register to clear.
2331:Generated_Source\PSoC4/CyLib.c **** *   CY_SYS_RESET_WDT       - WDT caused a reset
2332:Generated_Source\PSoC4/CyLib.c **** *   CY_SYS_RESET_PROTFAULT - Occured protection violation that requires reset
2333:Generated_Source\PSoC4/CyLib.c **** *   CY_SYS_RESET_SW        - Cortex-M0 requested a system reset.
2334:Generated_Source\PSoC4/CyLib.c **** *
2335:Generated_Source\PSoC4/CyLib.c **** * \return
2336:Generated_Source\PSoC4/CyLib.c **** *  Status. Same enumerated bit values as used for the reason parameter.
2337:Generated_Source\PSoC4/CyLib.c **** *
2338:Generated_Source\PSoC4/CyLib.c **** *******************************************************************************/
2339:Generated_Source\PSoC4/CyLib.c **** uint32 CySysGetResetReason(uint32 reason)
2340:Generated_Source\PSoC4/CyLib.c **** {
 1204              		.loc 1 2340 0
 1205              		.cfi_startproc
 1206              		@ args = 0, pretend = 0, frame = 0
 1207              		@ frame_needed = 0, uses_anonymous_args = 0
 1208              		@ link register save eliminated.
 1209              	.LVL112:
 1210 0000 0200     		movs	r2, r0
2341:Generated_Source\PSoC4/CyLib.c ****     uint32 returnStatus;
2342:Generated_Source\PSoC4/CyLib.c **** 
2343:Generated_Source\PSoC4/CyLib.c ****     reason &= (CY_SYS_RESET_WDT | CY_SYS_RESET_PROTFAULT | CY_SYS_RESET_SW);
 1211              		.loc 1 2343 0
 1212 0002 1920     		movs	r0, #25
 1213              	.LVL113:
 1214 0004 0240     		ands	r2, r0
 1215              	.LVL114:
2344:Generated_Source\PSoC4/CyLib.c ****     returnStatus = CY_SYS_RES_CAUSE_REG &
 1216              		.loc 1 2344 0
 1217 0006 0249     		ldr	r1, .L87
 1218 0008 0B68     		ldr	r3, [r1]
 1219 000a 1840     		ands	r0, r3
 1220              	.LVL115:
2345:Generated_Source\PSoC4/CyLib.c ****                   (CY_SYS_RESET_WDT | CY_SYS_RESET_PROTFAULT | CY_SYS_RESET_SW);
2346:Generated_Source\PSoC4/CyLib.c ****     CY_SYS_RES_CAUSE_REG = reason;
ARM GAS  C:\Users\Banni\AppData\Local\Temp\ccvFPZ8V.s 			page 64


 1221              		.loc 1 2346 0
 1222 000c 0A60     		str	r2, [r1]
2347:Generated_Source\PSoC4/CyLib.c **** 
2348:Generated_Source\PSoC4/CyLib.c ****     return (returnStatus);
2349:Generated_Source\PSoC4/CyLib.c **** }
 1223              		.loc 1 2349 0
 1224              		@ sp needed
 1225 000e 7047     		bx	lr
 1226              	.L88:
 1227              		.align	2
 1228              	.L87:
 1229 0010 54000340 		.word	1073938516
 1230              		.cfi_endproc
 1231              	.LFE28:
 1232              		.size	CySysGetResetReason, .-CySysGetResetReason
 1233              		.section	.text.CyDisableInts,"ax",%progbits
 1234              		.align	2
 1235              		.global	CyDisableInts
 1236              		.code	16
 1237              		.thumb_func
 1238              		.type	CyDisableInts, %function
 1239              	CyDisableInts:
 1240              	.LFB29:
2350:Generated_Source\PSoC4/CyLib.c **** 
2351:Generated_Source\PSoC4/CyLib.c **** 
2352:Generated_Source\PSoC4/CyLib.c **** /*******************************************************************************
2353:Generated_Source\PSoC4/CyLib.c **** * Function Name: CyDisableInts
2354:Generated_Source\PSoC4/CyLib.c **** ****************************************************************************//**
2355:Generated_Source\PSoC4/CyLib.c **** *
2356:Generated_Source\PSoC4/CyLib.c **** *  Disables all interrupts.
2357:Generated_Source\PSoC4/CyLib.c **** *
2358:Generated_Source\PSoC4/CyLib.c **** * \return
2359:Generated_Source\PSoC4/CyLib.c **** *  32 bit mask of previously enabled interrupts.
2360:Generated_Source\PSoC4/CyLib.c **** *
2361:Generated_Source\PSoC4/CyLib.c **** *******************************************************************************/
2362:Generated_Source\PSoC4/CyLib.c **** uint32 CyDisableInts(void)
2363:Generated_Source\PSoC4/CyLib.c **** {
 1241              		.loc 1 2363 0
 1242              		.cfi_startproc
 1243              		@ args = 0, pretend = 0, frame = 0
 1244              		@ frame_needed = 0, uses_anonymous_args = 0
 1245              		@ link register save eliminated.
2364:Generated_Source\PSoC4/CyLib.c ****     uint32 intState;
2365:Generated_Source\PSoC4/CyLib.c **** 
2366:Generated_Source\PSoC4/CyLib.c ****     /* Get current interrupt state. */
2367:Generated_Source\PSoC4/CyLib.c ****     intState = CY_INT_CLEAR_REG;
 1246              		.loc 1 2367 0
 1247 0000 024B     		ldr	r3, .L90
 1248 0002 1868     		ldr	r0, [r3]
 1249              	.LVL116:
2368:Generated_Source\PSoC4/CyLib.c **** 
2369:Generated_Source\PSoC4/CyLib.c ****     /* Disable all interrupts. */
2370:Generated_Source\PSoC4/CyLib.c ****     CY_INT_CLEAR_REG = CY_INT_CLEAR_DISABLE_ALL;
 1250              		.loc 1 2370 0
 1251 0004 0122     		movs	r2, #1
 1252 0006 5242     		rsbs	r2, r2, #0
 1253 0008 1A60     		str	r2, [r3]
ARM GAS  C:\Users\Banni\AppData\Local\Temp\ccvFPZ8V.s 			page 65


2371:Generated_Source\PSoC4/CyLib.c **** 
2372:Generated_Source\PSoC4/CyLib.c ****     return (intState);
2373:Generated_Source\PSoC4/CyLib.c **** }
 1254              		.loc 1 2373 0
 1255              		@ sp needed
 1256 000a 7047     		bx	lr
 1257              	.L91:
 1258              		.align	2
 1259              	.L90:
 1260 000c 80E100E0 		.word	-536813184
 1261              		.cfi_endproc
 1262              	.LFE29:
 1263              		.size	CyDisableInts, .-CyDisableInts
 1264              		.section	.text.CyEnableInts,"ax",%progbits
 1265              		.align	2
 1266              		.global	CyEnableInts
 1267              		.code	16
 1268              		.thumb_func
 1269              		.type	CyEnableInts, %function
 1270              	CyEnableInts:
 1271              	.LFB30:
2374:Generated_Source\PSoC4/CyLib.c **** 
2375:Generated_Source\PSoC4/CyLib.c **** 
2376:Generated_Source\PSoC4/CyLib.c **** /*******************************************************************************
2377:Generated_Source\PSoC4/CyLib.c **** * Function Name: CyEnableInts
2378:Generated_Source\PSoC4/CyLib.c **** ****************************************************************************//**
2379:Generated_Source\PSoC4/CyLib.c **** *
2380:Generated_Source\PSoC4/CyLib.c **** *  Enables interrupts to a given state.
2381:Generated_Source\PSoC4/CyLib.c **** *
2382:Generated_Source\PSoC4/CyLib.c **** *  \param mask The 32 bit mask of interrupts to enable.
2383:Generated_Source\PSoC4/CyLib.c **** *
2384:Generated_Source\PSoC4/CyLib.c **** *******************************************************************************/
2385:Generated_Source\PSoC4/CyLib.c **** void CyEnableInts(uint32 mask)
2386:Generated_Source\PSoC4/CyLib.c **** {
 1272              		.loc 1 2386 0
 1273              		.cfi_startproc
 1274              		@ args = 0, pretend = 0, frame = 0
 1275              		@ frame_needed = 0, uses_anonymous_args = 0
 1276              		@ link register save eliminated.
 1277              	.LVL117:
2387:Generated_Source\PSoC4/CyLib.c ****     CY_INT_ENABLE_REG = mask;
 1278              		.loc 1 2387 0
 1279 0000 014B     		ldr	r3, .L93
 1280 0002 1860     		str	r0, [r3]
2388:Generated_Source\PSoC4/CyLib.c **** }
 1281              		.loc 1 2388 0
 1282              		@ sp needed
 1283 0004 7047     		bx	lr
 1284              	.L94:
 1285 0006 C046     		.align	2
 1286              	.L93:
 1287 0008 00E100E0 		.word	-536813312
 1288              		.cfi_endproc
 1289              	.LFE30:
 1290              		.size	CyEnableInts, .-CyEnableInts
 1291              		.section	.text.CyIntEnable,"ax",%progbits
 1292              		.align	2
ARM GAS  C:\Users\Banni\AppData\Local\Temp\ccvFPZ8V.s 			page 66


 1293              		.global	CyIntEnable
 1294              		.code	16
 1295              		.thumb_func
 1296              		.type	CyIntEnable, %function
 1297              	CyIntEnable:
 1298              	.LFB37:
2389:Generated_Source\PSoC4/CyLib.c **** 
2390:Generated_Source\PSoC4/CyLib.c **** 
2391:Generated_Source\PSoC4/CyLib.c **** /*******************************************************************************
2392:Generated_Source\PSoC4/CyLib.c **** * Function Name: CyIntSetSysVector
2393:Generated_Source\PSoC4/CyLib.c **** ****************************************************************************//**
2394:Generated_Source\PSoC4/CyLib.c **** *
2395:Generated_Source\PSoC4/CyLib.c **** *  Sets the interrupt vector of the specified system interrupt number. These
2396:Generated_Source\PSoC4/CyLib.c **** *  interrupts are for SysTick, PendSV and others.
2397:Generated_Source\PSoC4/CyLib.c **** *
2398:Generated_Source\PSoC4/CyLib.c **** *  \param number: System interrupt number:
2399:Generated_Source\PSoC4/CyLib.c **** *    CY_INT_NMI_IRQN        - Non Maskable Interrupt
2400:Generated_Source\PSoC4/CyLib.c **** *    CY_INT_HARD_FAULT_IRQN - Hard Fault Interrupt
2401:Generated_Source\PSoC4/CyLib.c **** *    CY_INT_SVCALL_IRQN     - SV Call Interrupt
2402:Generated_Source\PSoC4/CyLib.c **** *    CY_INT_PEND_SV_IRQN    - Pend SV Interrupt
2403:Generated_Source\PSoC4/CyLib.c **** *    CY_INT_SYSTICK_IRQN    - System Tick Interrupt
2404:Generated_Source\PSoC4/CyLib.c **** *
2405:Generated_Source\PSoC4/CyLib.c **** *  \param address Pointer to an interrupt service routine.
2406:Generated_Source\PSoC4/CyLib.c **** *
2407:Generated_Source\PSoC4/CyLib.c **** * \return The old ISR vector at this location.
2408:Generated_Source\PSoC4/CyLib.c **** *
2409:Generated_Source\PSoC4/CyLib.c **** *******************************************************************************/
2410:Generated_Source\PSoC4/CyLib.c **** cyisraddress CyIntSetSysVector(uint8 number, cyisraddress address)
2411:Generated_Source\PSoC4/CyLib.c **** {
2412:Generated_Source\PSoC4/CyLib.c ****     cyisraddress oldIsr;
2413:Generated_Source\PSoC4/CyLib.c ****     cyisraddress *ramVectorTable = (cyisraddress *) CY_INT_VECT_TABLE;
2414:Generated_Source\PSoC4/CyLib.c **** 
2415:Generated_Source\PSoC4/CyLib.c ****     CYASSERT(number < CY_INT_IRQ_BASE);
2416:Generated_Source\PSoC4/CyLib.c **** 
2417:Generated_Source\PSoC4/CyLib.c ****     /* Save old Interrupt service routine. */
2418:Generated_Source\PSoC4/CyLib.c ****     oldIsr = ramVectorTable[number];
