ARM GAS  C:\Users\Banni\AppData\Local\Temp\ccrMPOrK.s 			page 1


   1              		.syntax unified
   2              		.cpu cortex-m0plus
   3              		.fpu softvfp
   4              		.eabi_attribute 20, 1
   5              		.eabi_attribute 21, 1
   6              		.eabi_attribute 23, 3
   7              		.eabi_attribute 24, 1
   8              		.eabi_attribute 25, 1
   9              		.eabi_attribute 26, 1
  10              		.eabi_attribute 30, 1
  11              		.eabi_attribute 34, 0
  12              		.eabi_attribute 18, 4
  13              		.thumb
  14              		.syntax unified
  15              		.file	"cyPm.c"
  16              		.text
  17              	.Ltext0:
  18              		.cfi_sections	.debug_frame
  19              		.section	.text.CySysPmSleep,"ax",%progbits
  20              		.align	2
  21              		.global	CySysPmSleep
  22              		.code	16
  23              		.thumb_func
  24              		.type	CySysPmSleep, %function
  25              	CySysPmSleep:
  26              	.LFB1:
  27              		.file 1 "Generated_Source\\PSoC4\\cyPm.c"
   1:Generated_Source\PSoC4/cyPm.c **** /***************************************************************************//**
   2:Generated_Source\PSoC4/cyPm.c **** * \file cyPm.c
   3:Generated_Source\PSoC4/cyPm.c **** * \version 5.70
   4:Generated_Source\PSoC4/cyPm.c **** *
   5:Generated_Source\PSoC4/cyPm.c **** * \brief Provides an API for the power management.
   6:Generated_Source\PSoC4/cyPm.c **** *
   7:Generated_Source\PSoC4/cyPm.c **** * \note Documentation of the API's in this file is located in the System
   8:Generated_Source\PSoC4/cyPm.c **** * Reference Guide provided with PSoC Creator.
   9:Generated_Source\PSoC4/cyPm.c **** *
  10:Generated_Source\PSoC4/cyPm.c **** ********************************************************************************
  11:Generated_Source\PSoC4/cyPm.c **** * \copyright
  12:Generated_Source\PSoC4/cyPm.c **** * Copyright 2011-2017, Cypress Semiconductor Corporation.  All rights reserved.
  13:Generated_Source\PSoC4/cyPm.c **** * You may use this file only in accordance with the license, terms, conditions,
  14:Generated_Source\PSoC4/cyPm.c **** * disclaimers, and limitations in the end user license agreement accompanying
  15:Generated_Source\PSoC4/cyPm.c **** * the software package with which this file was provided.
  16:Generated_Source\PSoC4/cyPm.c **** *******************************************************************************/
  17:Generated_Source\PSoC4/cyPm.c **** 
  18:Generated_Source\PSoC4/cyPm.c **** #include "cyPm.h"
  19:Generated_Source\PSoC4/cyPm.c **** #include "CyLib.h"
  20:Generated_Source\PSoC4/cyPm.c **** #include "CyFlash.h"
  21:Generated_Source\PSoC4/cyPm.c **** 
  22:Generated_Source\PSoC4/cyPm.c **** 
  23:Generated_Source\PSoC4/cyPm.c **** /*******************************************************************************
  24:Generated_Source\PSoC4/cyPm.c **** * Function Name: CySysPmSleep
  25:Generated_Source\PSoC4/cyPm.c **** ****************************************************************************//**
  26:Generated_Source\PSoC4/cyPm.c **** *
  27:Generated_Source\PSoC4/cyPm.c **** * Puts the part into the Sleep state. This is a CPU-centric power mode.
  28:Generated_Source\PSoC4/cyPm.c **** * It means that the CPU has indicated that it is in the sleep mode and
  29:Generated_Source\PSoC4/cyPm.c **** * its main clock can be removed. It is identical to Active from a peripheral
  30:Generated_Source\PSoC4/cyPm.c **** * point of view. Any enabled interrupts can cause wakeup from the Sleep mode.
ARM GAS  C:\Users\Banni\AppData\Local\Temp\ccrMPOrK.s 			page 2


  31:Generated_Source\PSoC4/cyPm.c **** *
  32:Generated_Source\PSoC4/cyPm.c **** *******************************************************************************/
  33:Generated_Source\PSoC4/cyPm.c **** void CySysPmSleep(void)
  34:Generated_Source\PSoC4/cyPm.c **** {
  28              		.loc 1 34 0
  29              		.cfi_startproc
  30              		@ args = 0, pretend = 0, frame = 0
  31              		@ frame_needed = 0, uses_anonymous_args = 0
  32 0000 10B5     		push	{r4, lr}
  33              		.cfi_def_cfa_offset 8
  34              		.cfi_offset 4, -8
  35              		.cfi_offset 14, -4
  35:Generated_Source\PSoC4/cyPm.c ****     uint8 interruptState;
  36:Generated_Source\PSoC4/cyPm.c **** 
  37:Generated_Source\PSoC4/cyPm.c ****     interruptState = CyEnterCriticalSection();
  36              		.loc 1 37 0
  37 0002 FFF7FEFF 		bl	CyEnterCriticalSection
  38              	.LVL0:
  38:Generated_Source\PSoC4/cyPm.c **** 
  39:Generated_Source\PSoC4/cyPm.c ****     /* CPU enters Sleep mode upon execution of WFI */
  40:Generated_Source\PSoC4/cyPm.c ****     CY_PM_CPU_SCR_REG &= (uint32) (~CY_PM_CPU_SCR_SLEEPDEEP);
  39              		.loc 1 40 0
  40 0006 044A     		ldr	r2, .L2
  41 0008 1368     		ldr	r3, [r2]
  42 000a 0421     		movs	r1, #4
  43 000c 8B43     		bics	r3, r1
  44 000e 1360     		str	r3, [r2]
  41:Generated_Source\PSoC4/cyPm.c **** 
  42:Generated_Source\PSoC4/cyPm.c ****     /* Sleep and wait for interrupt */
  43:Generated_Source\PSoC4/cyPm.c ****     CY_PM_WFI;
  45              		.loc 1 43 0
  46              		.syntax divided
  47              	@ 43 "Generated_Source\PSoC4\cyPm.c" 1
  48 0010 30BF     		WFI 
  49              	
  50              	@ 0 "" 2
  44:Generated_Source\PSoC4/cyPm.c **** 
  45:Generated_Source\PSoC4/cyPm.c ****     CyExitCriticalSection(interruptState);
  51              		.loc 1 45 0
  52              		.thumb
  53              		.syntax unified
  54 0012 FFF7FEFF 		bl	CyExitCriticalSection
  55              	.LVL1:
  46:Generated_Source\PSoC4/cyPm.c **** }
  56              		.loc 1 46 0
  57              		@ sp needed
  58 0016 10BD     		pop	{r4, pc}
  59              	.L3:
  60              		.align	2
  61              	.L2:
  62 0018 10ED00E0 		.word	-536810224
  63              		.cfi_endproc
  64              	.LFE1:
  65              		.size	CySysPmSleep, .-CySysPmSleep
  66              		.section	.text.CySysPmDeepSleep,"ax",%progbits
  67              		.align	2
  68              		.global	CySysPmDeepSleep
ARM GAS  C:\Users\Banni\AppData\Local\Temp\ccrMPOrK.s 			page 3


  69              		.code	16
  70              		.thumb_func
  71              		.type	CySysPmDeepSleep, %function
  72              	CySysPmDeepSleep:
  73              	.LFB2:
  47:Generated_Source\PSoC4/cyPm.c **** 
  48:Generated_Source\PSoC4/cyPm.c **** 
  49:Generated_Source\PSoC4/cyPm.c **** /*******************************************************************************
  50:Generated_Source\PSoC4/cyPm.c **** * Function Name: CySysPmDeepSleep
  51:Generated_Source\PSoC4/cyPm.c **** ****************************************************************************//**
  52:Generated_Source\PSoC4/cyPm.c **** *
  53:Generated_Source\PSoC4/cyPm.c **** * Puts the part into the Deep Sleep state. If the firmware attempts to enter
  54:Generated_Source\PSoC4/cyPm.c **** * this mode before the system is ready (that is, when
  55:Generated_Source\PSoC4/cyPm.c **** * PWR_CONTROL.LPM_READY = 0), then the device will go into the Sleep mode
  56:Generated_Source\PSoC4/cyPm.c **** * instead and automatically enter the originally intended mode when the
  57:Generated_Source\PSoC4/cyPm.c **** * holdoff expires.
  58:Generated_Source\PSoC4/cyPm.c **** *
  59:Generated_Source\PSoC4/cyPm.c **** * The wakeup occurs when an interrupt is received from a DeepSleep or
  60:Generated_Source\PSoC4/cyPm.c **** * Hibernate peripheral. For more details, see a corresponding
  61:Generated_Source\PSoC4/cyPm.c **** * peripheral's datasheet.
  62:Generated_Source\PSoC4/cyPm.c **** *
  63:Generated_Source\PSoC4/cyPm.c **** *******************************************************************************/
  64:Generated_Source\PSoC4/cyPm.c **** void CySysPmDeepSleep(void)
  65:Generated_Source\PSoC4/cyPm.c **** {
  74              		.loc 1 65 0
  75              		.cfi_startproc
  76              		@ args = 0, pretend = 0, frame = 8
  77              		@ frame_needed = 0, uses_anonymous_args = 0
  78 0000 10B5     		push	{r4, lr}
  79              		.cfi_def_cfa_offset 8
  80              		.cfi_offset 4, -8
  81              		.cfi_offset 14, -4
  82 0002 82B0     		sub	sp, sp, #8
  83              		.cfi_def_cfa_offset 16
  66:Generated_Source\PSoC4/cyPm.c ****     uint8 interruptState;
  67:Generated_Source\PSoC4/cyPm.c ****     #if(CY_IP_SRSSV2)
  68:Generated_Source\PSoC4/cyPm.c ****         volatile uint32 clkSelectReg;
  69:Generated_Source\PSoC4/cyPm.c ****     #endif /* (CY_IP_SRSSV2) */
  70:Generated_Source\PSoC4/cyPm.c ****     
  71:Generated_Source\PSoC4/cyPm.c ****     #if(CY_IP_ECO_SRSSLT)
  72:Generated_Source\PSoC4/cyPm.c ****         volatile uint32 pllResoreFlag = 0u;
  84              		.loc 1 72 0
  85 0004 0023     		movs	r3, #0
  86 0006 0193     		str	r3, [sp, #4]
  73:Generated_Source\PSoC4/cyPm.c ****     #endif /* (CY_IP_ECO_SRSSLT) */
  74:Generated_Source\PSoC4/cyPm.c ****     
  75:Generated_Source\PSoC4/cyPm.c ****     interruptState = CyEnterCriticalSection();
  87              		.loc 1 75 0
  88 0008 FFF7FEFF 		bl	CyEnterCriticalSection
  89              	.LVL2:
  90 000c 0400     		movs	r4, r0
  91              	.LVL3:
  76:Generated_Source\PSoC4/cyPm.c **** 
  77:Generated_Source\PSoC4/cyPm.c ****     #if(CY_IP_ECO_SRSSLT)
  78:Generated_Source\PSoC4/cyPm.c ****         if(0u != (CY_SYS_ECO_CLK_SELECT_REG & CY_SYS_ECO_CLK_SELECT_ECO_PLL_MASK))
  92              		.loc 1 78 0
  93 000e 104B     		ldr	r3, .L7
ARM GAS  C:\Users\Banni\AppData\Local\Temp\ccrMPOrK.s 			page 4


  94 0010 1B68     		ldr	r3, [r3]
  95 0012 DB07     		lsls	r3, r3, #31
  96 0014 06D5     		bpl	.L5
  79:Generated_Source\PSoC4/cyPm.c ****         {
  80:Generated_Source\PSoC4/cyPm.c ****             pllResoreFlag = 1u;
  97              		.loc 1 80 0
  98 0016 0123     		movs	r3, #1
  99 0018 0193     		str	r3, [sp, #4]
  81:Generated_Source\PSoC4/cyPm.c ****             
  82:Generated_Source\PSoC4/cyPm.c ****             /* Set default state = IMO for HFCLK_SEL bit mask */
  83:Generated_Source\PSoC4/cyPm.c ****             CY_SYS_CLK_SELECT_REG &= (uint32)(~CY_SYS_CLK_SELECT_DIRECT_SEL_MASK);
 100              		.loc 1 83 0
 101 001a 0E4A     		ldr	r2, .L7+4
 102 001c 1368     		ldr	r3, [r2]
 103 001e 0321     		movs	r1, #3
 104 0020 8B43     		bics	r3, r1
 105 0022 1360     		str	r3, [r2]
 106              	.L5:
  84:Generated_Source\PSoC4/cyPm.c ****         }
  85:Generated_Source\PSoC4/cyPm.c ****         else
  86:Generated_Source\PSoC4/cyPm.c ****         {
  87:Generated_Source\PSoC4/cyPm.c ****             /* Do nothing */
  88:Generated_Source\PSoC4/cyPm.c ****         }
  89:Generated_Source\PSoC4/cyPm.c ****     #endif /* (CY_IP_ECO_SRSSLT) */
  90:Generated_Source\PSoC4/cyPm.c **** 
  91:Generated_Source\PSoC4/cyPm.c ****     #if(CY_IP_SRSSV2)
  92:Generated_Source\PSoC4/cyPm.c ****         /* Device enters DeepSleep mode when CPU asserts SLEEPDEEP signal */
  93:Generated_Source\PSoC4/cyPm.c ****         CY_PM_PWR_CONTROL_REG &= (uint32) (~CY_PM_PWR_CONTROL_HIBERNATE);
  94:Generated_Source\PSoC4/cyPm.c ****     #endif /* (CY_IP_SRSSV2) */
  95:Generated_Source\PSoC4/cyPm.c **** 
  96:Generated_Source\PSoC4/cyPm.c ****     #if (CY_IP_CPUSS && CY_IP_SRSSV2)
  97:Generated_Source\PSoC4/cyPm.c ****         CY_PM_CPUSS_CONFIG_REG |= CY_PM_CPUSS_CONFIG_FLSH_ACC_BYPASS;
  98:Generated_Source\PSoC4/cyPm.c ****     #endif /* (CY_IP_CPUSS && CY_IP_SRSSV2) */
  99:Generated_Source\PSoC4/cyPm.c **** 
 100:Generated_Source\PSoC4/cyPm.c ****     /* Adjust delay to wait for references to settle on wakeup from Deep Sleep */
 101:Generated_Source\PSoC4/cyPm.c ****     CY_PM_PWR_KEY_DELAY_REG = CY_SFLASH_DPSLP_KEY_DELAY_REG;
 107              		.loc 1 101 0
 108 0024 0C4B     		ldr	r3, .L7+8
 109 0026 1B88     		ldrh	r3, [r3]
 110 0028 9BB2     		uxth	r3, r3
 111 002a 0C4A     		ldr	r2, .L7+12
 112 002c 1360     		str	r3, [r2]
 102:Generated_Source\PSoC4/cyPm.c **** 
 103:Generated_Source\PSoC4/cyPm.c ****     /* CPU enters DeepSleep/Hibernate mode upon execution of WFI */
 104:Generated_Source\PSoC4/cyPm.c ****     CY_PM_CPU_SCR_REG |= CY_PM_CPU_SCR_SLEEPDEEP;
 113              		.loc 1 104 0
 114 002e 0C4A     		ldr	r2, .L7+16
 115 0030 1168     		ldr	r1, [r2]
 116 0032 0423     		movs	r3, #4
 117 0034 0B43     		orrs	r3, r1
 118 0036 1360     		str	r3, [r2]
 105:Generated_Source\PSoC4/cyPm.c **** 
 106:Generated_Source\PSoC4/cyPm.c ****     #if(CY_IP_SRSSV2)
 107:Generated_Source\PSoC4/cyPm.c ****         /* Preserve system clock configuration and
 108:Generated_Source\PSoC4/cyPm.c ****         * reduce sysclk to <=12 MHz (Cypress ID #158710, #179888).
 109:Generated_Source\PSoC4/cyPm.c ****         */
 110:Generated_Source\PSoC4/cyPm.c ****         clkSelectReg = CY_SYS_CLK_SELECT_REG;
ARM GAS  C:\Users\Banni\AppData\Local\Temp\ccrMPOrK.s 			page 5


 111:Generated_Source\PSoC4/cyPm.c ****         CySysClkWriteSysclkDiv(CY_SYS_CLK_SYSCLK_DIV4);
 112:Generated_Source\PSoC4/cyPm.c ****     #endif /* (CY_IP_SRSSV2) */
 113:Generated_Source\PSoC4/cyPm.c ****     
 114:Generated_Source\PSoC4/cyPm.c ****     /* Sleep and wait for interrupt */
 115:Generated_Source\PSoC4/cyPm.c ****     CY_PM_WFI;
 119              		.loc 1 115 0
 120              		.syntax divided
 121              	@ 115 "Generated_Source\PSoC4\cyPm.c" 1
 122 0038 30BF     		WFI 
 123              	
 124              	@ 0 "" 2
 116:Generated_Source\PSoC4/cyPm.c **** 
 117:Generated_Source\PSoC4/cyPm.c ****     #if(CY_IP_SRSSV2)
 118:Generated_Source\PSoC4/cyPm.c ****         /* Restore system clock configuration */
 119:Generated_Source\PSoC4/cyPm.c ****         CY_SYS_CLK_SELECT_REG = clkSelectReg;
 120:Generated_Source\PSoC4/cyPm.c ****     #endif /* (CY_IP_SRSSV2) */
 121:Generated_Source\PSoC4/cyPm.c ****     
 122:Generated_Source\PSoC4/cyPm.c ****     #if (CY_IP_CPUSS && CY_IP_SRSSV2)
 123:Generated_Source\PSoC4/cyPm.c ****         CY_PM_CPUSS_CONFIG_REG &= (uint32) (~CY_PM_CPUSS_CONFIG_FLSH_ACC_BYPASS);
 124:Generated_Source\PSoC4/cyPm.c ****     #endif /* (CY_IP_CPUSS && CY_IP_SRSSV2) */
 125:Generated_Source\PSoC4/cyPm.c **** 
 126:Generated_Source\PSoC4/cyPm.c ****     #if(CY_IP_ECO_SRSSLT)
 127:Generated_Source\PSoC4/cyPm.c ****         if(0u != pllResoreFlag)
 125              		.loc 1 127 0
 126              		.thumb
 127              		.syntax unified
 128 003a 019B     		ldr	r3, [sp, #4]
 129 003c 002B     		cmp	r3, #0
 130 003e 02D0     		beq	.L6
 128:Generated_Source\PSoC4/cyPm.c ****         {
 129:Generated_Source\PSoC4/cyPm.c ****             CySysClkWriteHfclkDirect(CY_SYS_CLK_HFCLK_PLL0);
 131              		.loc 1 129 0
 132 0040 0620     		movs	r0, #6
 133 0042 FFF7FEFF 		bl	CySysClkWriteHfclkDirect
 134              	.LVL4:
 135              	.L6:
 130:Generated_Source\PSoC4/cyPm.c ****         }
 131:Generated_Source\PSoC4/cyPm.c ****         else
 132:Generated_Source\PSoC4/cyPm.c ****         {
 133:Generated_Source\PSoC4/cyPm.c ****             /* Do nothing */
 134:Generated_Source\PSoC4/cyPm.c ****         }
 135:Generated_Source\PSoC4/cyPm.c ****     #endif /* (CY_IP_ECO_SRSSLT) */    
 136:Generated_Source\PSoC4/cyPm.c **** 
 137:Generated_Source\PSoC4/cyPm.c ****     CyExitCriticalSection(interruptState);
 136              		.loc 1 137 0
 137 0046 2000     		movs	r0, r4
 138 0048 FFF7FEFF 		bl	CyExitCriticalSection
 139              	.LVL5:
 138:Generated_Source\PSoC4/cyPm.c **** }
 140              		.loc 1 138 0
 141 004c 02B0     		add	sp, sp, #8
 142              		@ sp needed
 143              	.LVL6:
 144 004e 10BD     		pop	{r4, pc}
 145              	.L8:
 146              		.align	2
 147              	.L7:
ARM GAS  C:\Users\Banni\AppData\Local\Temp\ccrMPOrK.s 			page 6


 148 0050 00002F40 		.word	1076822016
 149 0054 28000340 		.word	1073938472
 150 0058 52F2FF0F 		.word	268431954
 151 005c 04000340 		.word	1073938436
 152 0060 10ED00E0 		.word	-536810224
 153              		.cfi_endproc
 154              	.LFE2:
 155              		.size	CySysPmDeepSleep, .-CySysPmDeepSleep
 156              		.section	.text.CySysPmSetWakeupHoldoff,"ax",%progbits
 157              		.align	2
 158              		.global	CySysPmSetWakeupHoldoff
 159              		.code	16
 160              		.thumb_func
 161              		.type	CySysPmSetWakeupHoldoff, %function
 162              	CySysPmSetWakeupHoldoff:
 163              	.LFB3:
 139:Generated_Source\PSoC4/cyPm.c **** 
 140:Generated_Source\PSoC4/cyPm.c **** 
 141:Generated_Source\PSoC4/cyPm.c **** #if(CY_IP_SRSSV2)
 142:Generated_Source\PSoC4/cyPm.c **** 
 143:Generated_Source\PSoC4/cyPm.c ****     /*******************************************************************************
 144:Generated_Source\PSoC4/cyPm.c ****     * Function Name: CySysPmHibernate
 145:Generated_Source\PSoC4/cyPm.c ****     ****************************************************************************//**
 146:Generated_Source\PSoC4/cyPm.c ****     *
 147:Generated_Source\PSoC4/cyPm.c ****     * Puts the part into the Hibernate state. Only SRAM and UDBs are retained;
 148:Generated_Source\PSoC4/cyPm.c ****     * most internal supplies are off. Wakeup is possible from a pin or a hibernate
 149:Generated_Source\PSoC4/cyPm.c ****     * comparator only.
 150:Generated_Source\PSoC4/cyPm.c ****     *
 151:Generated_Source\PSoC4/cyPm.c ****     * It is expected that the firmware has already frozen the IO-Cells using
 152:Generated_Source\PSoC4/cyPm.c ****     * CySysPmFreezeIo() function before the call to this function. If this is
 153:Generated_Source\PSoC4/cyPm.c ****     * omitted, the IO-cells will be frozen in the same way as they are
 154:Generated_Source\PSoC4/cyPm.c ****     * in the Active to Deep Sleep transition, but will lose their state on wake up
 155:Generated_Source\PSoC4/cyPm.c ****     * (because of the reset occurring at that time).
 156:Generated_Source\PSoC4/cyPm.c ****     *
 157:Generated_Source\PSoC4/cyPm.c ****     * Because all the CPU state is lost, the CPU will start up at the reset vector.
 158:Generated_Source\PSoC4/cyPm.c ****     * To save the firmware state through the Hibernate low power mode, a
 159:Generated_Source\PSoC4/cyPm.c ****     * corresponding variable should be defined with CY_NOINIT attribute. It
 160:Generated_Source\PSoC4/cyPm.c ****     * prevents data from being initialized to zero on startup. The interrupt
 161:Generated_Source\PSoC4/cyPm.c ****     * cause of the hibernate peripheral is retained, such that it can be either
 162:Generated_Source\PSoC4/cyPm.c ****     * read by the firmware or cause an interrupt after the firmware has booted and
 163:Generated_Source\PSoC4/cyPm.c ****     * enabled the corresponding interrupt. To distinguish the wakeup from
 164:Generated_Source\PSoC4/cyPm.c ****     * the Hibernate mode and the general Reset event, the
 165:Generated_Source\PSoC4/cyPm.c ****     * \ref CySysPmGetResetReason() function could be used.
 166:Generated_Source\PSoC4/cyPm.c ****     *
 167:Generated_Source\PSoC4/cyPm.c ****     *******************************************************************************/
 168:Generated_Source\PSoC4/cyPm.c ****     void CySysPmHibernate(void)
 169:Generated_Source\PSoC4/cyPm.c ****     {
 170:Generated_Source\PSoC4/cyPm.c ****         uint8 interruptState;
 171:Generated_Source\PSoC4/cyPm.c **** 
 172:Generated_Source\PSoC4/cyPm.c ****         interruptState = CyEnterCriticalSection();
 173:Generated_Source\PSoC4/cyPm.c **** 
 174:Generated_Source\PSoC4/cyPm.c ****         #if (CY_IP_HOBTO_DEVICE)
 175:Generated_Source\PSoC4/cyPm.c ****             /* Disable input buffers for all ports */
 176:Generated_Source\PSoC4/cyPm.c ****             CySysPmHibPinsDisableInputBuf();
 177:Generated_Source\PSoC4/cyPm.c ****         #endif /* (CY_IP_HOBTO_DEVICE) */
 178:Generated_Source\PSoC4/cyPm.c **** 
 179:Generated_Source\PSoC4/cyPm.c ****         /* Device enters Hibernate mode when CPU asserts SLEEPDEEP signal */
ARM GAS  C:\Users\Banni\AppData\Local\Temp\ccrMPOrK.s 			page 7


 180:Generated_Source\PSoC4/cyPm.c ****         CY_PM_PWR_CONTROL_REG |= CY_PM_PWR_CONTROL_HIBERNATE;
 181:Generated_Source\PSoC4/cyPm.c **** 
 182:Generated_Source\PSoC4/cyPm.c ****         /* Adjust delay to wait for references to settle on wakeup from hibernate */
 183:Generated_Source\PSoC4/cyPm.c ****         CY_PM_PWR_KEY_DELAY_REG = CY_SFLASH_HIB_KEY_DELAY_REG;
 184:Generated_Source\PSoC4/cyPm.c **** 
 185:Generated_Source\PSoC4/cyPm.c ****         /* CPU enters DeepSleep/Hibernate mode upon execution of WFI */
 186:Generated_Source\PSoC4/cyPm.c ****         CY_PM_CPU_SCR_REG |= CY_PM_CPU_SCR_SLEEPDEEP;
 187:Generated_Source\PSoC4/cyPm.c **** 
 188:Generated_Source\PSoC4/cyPm.c ****         /* Save token that will retain through a STOP/WAKEUP sequence
 189:Generated_Source\PSoC4/cyPm.c ****          * thus could be used by CySysPmGetResetReason() to differentiate
 190:Generated_Source\PSoC4/cyPm.c ****          * WAKEUP from a general RESET event.
 191:Generated_Source\PSoC4/cyPm.c ****          */
 192:Generated_Source\PSoC4/cyPm.c ****         CY_PM_PWR_STOP_REG = (CY_PM_PWR_STOP_REG & (uint32)(~CY_PM_PWR_STOP_TOKEN_MASK)) | CY_PM_PW
 193:Generated_Source\PSoC4/cyPm.c **** 
 194:Generated_Source\PSoC4/cyPm.c ****         /* Sleep and wait for interrupt. Wakeup from Hibernate is performed
 195:Generated_Source\PSoC4/cyPm.c ****          * through RESET state, causing a normal Boot procedure to occur.
 196:Generated_Source\PSoC4/cyPm.c ****          * The WFI instruction doesn't put the core to sleep if its wake condition
 197:Generated_Source\PSoC4/cyPm.c ****          * is true when the instruction is executed.
 198:Generated_Source\PSoC4/cyPm.c ****          */
 199:Generated_Source\PSoC4/cyPm.c ****         CY_PM_WFI;
 200:Generated_Source\PSoC4/cyPm.c **** 
 201:Generated_Source\PSoC4/cyPm.c ****         CyExitCriticalSection(interruptState);
 202:Generated_Source\PSoC4/cyPm.c ****     }
 203:Generated_Source\PSoC4/cyPm.c **** 
 204:Generated_Source\PSoC4/cyPm.c **** 
 205:Generated_Source\PSoC4/cyPm.c ****     /*******************************************************************************
 206:Generated_Source\PSoC4/cyPm.c ****     * Function Name: CySysPmStop
 207:Generated_Source\PSoC4/cyPm.c ****     ****************************************************************************//**
 208:Generated_Source\PSoC4/cyPm.c ****     *
 209:Generated_Source\PSoC4/cyPm.c ****     * Puts the part into the Stop state. All internal supplies are off;
 210:Generated_Source\PSoC4/cyPm.c ****     * no state is retained.
 211:Generated_Source\PSoC4/cyPm.c ****     *
 212:Generated_Source\PSoC4/cyPm.c ****     * Wakeup from Stop is performed by toggling the wakeup pin, causing
 213:Generated_Source\PSoC4/cyPm.c ****     * a normal boot procedure to occur. To configure the wakeup pin,
 214:Generated_Source\PSoC4/cyPm.c ****     * the Digital Input Pin component should be placed on the schematic,
 215:Generated_Source\PSoC4/cyPm.c ****     * assigned to the wakeup pin, and resistively pulled up or down to the inverse
 216:Generated_Source\PSoC4/cyPm.c ****     * state of the wakeup polarity. To distinguish the wakeup from the Stop mode
 217:Generated_Source\PSoC4/cyPm.c ****     * and the general Reset event, \ref CySysPmGetResetReason() function could be
 218:Generated_Source\PSoC4/cyPm.c ****     * used.  The wakeup pin is active low by default. The wakeup pin polarity
 219:Generated_Source\PSoC4/cyPm.c ****     * could be changed with the \ref CySysPmSetWakeupPolarity() function.
 220:Generated_Source\PSoC4/cyPm.c ****     *
 221:Generated_Source\PSoC4/cyPm.c ****     * This function freezes IO cells implicitly. It is not possible to enter
 222:Generated_Source\PSoC4/cyPm.c ****     * the STOP mode before freezing the IO cells. The IO cells remain frozen after
 223:Generated_Source\PSoC4/cyPm.c ****     * awake from the Stop mode until the firmware unfreezes them after booting
 224:Generated_Source\PSoC4/cyPm.c ****     * explicitly with \ref CySysPmUnfreezeIo() function call.
 225:Generated_Source\PSoC4/cyPm.c ****     *
 226:Generated_Source\PSoC4/cyPm.c ****     *******************************************************************************/
 227:Generated_Source\PSoC4/cyPm.c ****     void CySysPmStop(void)
 228:Generated_Source\PSoC4/cyPm.c ****     {
 229:Generated_Source\PSoC4/cyPm.c ****         (void) CyEnterCriticalSection();
 230:Generated_Source\PSoC4/cyPm.c **** 
 231:Generated_Source\PSoC4/cyPm.c ****         /* Update token to indicate Stop mode transition. Preserve only polarity. */
 232:Generated_Source\PSoC4/cyPm.c ****         CY_PM_PWR_STOP_REG = (CY_PM_PWR_STOP_REG & CY_PM_PWR_STOP_POLARITY) | CY_PM_PWR_STOP_TOKEN_
 233:Generated_Source\PSoC4/cyPm.c **** 
 234:Generated_Source\PSoC4/cyPm.c ****         /* Freeze IO-Cells to save IO-Cell state */
 235:Generated_Source\PSoC4/cyPm.c ****         CySysPmFreezeIo();
 236:Generated_Source\PSoC4/cyPm.c **** 
ARM GAS  C:\Users\Banni\AppData\Local\Temp\ccrMPOrK.s 			page 8


 237:Generated_Source\PSoC4/cyPm.c ****         /* Initiates transition to Stop state */
 238:Generated_Source\PSoC4/cyPm.c ****         CY_PM_PWR_STOP_REG = CY_PM_PWR_STOP_REG | CY_PM_PWR_STOP_STOP;
 239:Generated_Source\PSoC4/cyPm.c **** 
 240:Generated_Source\PSoC4/cyPm.c ****         /* Depending on the clock frequency and internal timing delays,
 241:Generated_Source\PSoC4/cyPm.c ****          * the final AHB transaction may or may not complete. To guard against
 242:Generated_Source\PSoC4/cyPm.c ****          * accidentally executing an unintended instruction, it is recommended
 243:Generated_Source\PSoC4/cyPm.c ****          * to add 2 NOP cycles after the final write to the STOP register.
 244:Generated_Source\PSoC4/cyPm.c ****          */
 245:Generated_Source\PSoC4/cyPm.c ****         CY_NOP;
 246:Generated_Source\PSoC4/cyPm.c ****         CY_NOP;
 247:Generated_Source\PSoC4/cyPm.c **** 
 248:Generated_Source\PSoC4/cyPm.c ****         /* Should never get to this WFI instruction */
 249:Generated_Source\PSoC4/cyPm.c ****         CY_PM_WFI;
 250:Generated_Source\PSoC4/cyPm.c **** 
 251:Generated_Source\PSoC4/cyPm.c ****         /* Wakeup from Stop is performed by toggling of Wakeup pin,
 252:Generated_Source\PSoC4/cyPm.c ****          * causing a normal Boot procedure to occur. No need to exit
 253:Generated_Source\PSoC4/cyPm.c ****          * from the critical section.
 254:Generated_Source\PSoC4/cyPm.c ****          */
 255:Generated_Source\PSoC4/cyPm.c ****     }
 256:Generated_Source\PSoC4/cyPm.c **** 
 257:Generated_Source\PSoC4/cyPm.c **** 
 258:Generated_Source\PSoC4/cyPm.c ****     /*******************************************************************************
 259:Generated_Source\PSoC4/cyPm.c ****     * Function Name: CySysPmSetWakeupPolarity
 260:Generated_Source\PSoC4/cyPm.c ****     ****************************************************************************//**
 261:Generated_Source\PSoC4/cyPm.c ****     *
 262:Generated_Source\PSoC4/cyPm.c ****     * Wake up from the stop mode is performed by toggling the wakeup pin,
 263:Generated_Source\PSoC4/cyPm.c ****     * causing a normal boot procedure to occur. This function assigns
 264:Generated_Source\PSoC4/cyPm.c ****     * the wakeup pin active level. Setting the wakeup pin to this level will cause
 265:Generated_Source\PSoC4/cyPm.c ****     * the wakeup from stop mode. The wakeup pin is active low by default.
 266:Generated_Source\PSoC4/cyPm.c ****     *
 267:Generated_Source\PSoC4/cyPm.c ****     * \param polarity
 268:Generated_Source\PSoC4/cyPm.c ****     * - \ref CY_PM_STOP_WAKEUP_ACTIVE_LOW Logical zero will wakeup the chip
 269:Generated_Source\PSoC4/cyPm.c ****     * - \ref CY_PM_STOP_WAKEUP_ACTIVE_HIGH Logical one will wakeup the chip
 270:Generated_Source\PSoC4/cyPm.c ****     *
 271:Generated_Source\PSoC4/cyPm.c ****     *******************************************************************************/
 272:Generated_Source\PSoC4/cyPm.c ****     void CySysPmSetWakeupPolarity(uint32 polarity)
 273:Generated_Source\PSoC4/cyPm.c ****     {
 274:Generated_Source\PSoC4/cyPm.c ****         uint8 interruptState;
 275:Generated_Source\PSoC4/cyPm.c **** 
 276:Generated_Source\PSoC4/cyPm.c ****         interruptState = CyEnterCriticalSection();
 277:Generated_Source\PSoC4/cyPm.c **** 
 278:Generated_Source\PSoC4/cyPm.c ****         CY_PM_PWR_STOP_REG = (CY_PM_STOP_WAKEUP_ACTIVE_LOW != polarity) ?
 279:Generated_Source\PSoC4/cyPm.c ****                             (CY_PM_PWR_STOP_REG | CY_PM_PWR_STOP_POLARITY) :
 280:Generated_Source\PSoC4/cyPm.c ****                             (CY_PM_PWR_STOP_REG & (uint32) (~CY_PM_PWR_STOP_POLARITY));
 281:Generated_Source\PSoC4/cyPm.c **** 
 282:Generated_Source\PSoC4/cyPm.c ****         CyExitCriticalSection(interruptState);
 283:Generated_Source\PSoC4/cyPm.c ****     }
 284:Generated_Source\PSoC4/cyPm.c **** 
 285:Generated_Source\PSoC4/cyPm.c **** 
 286:Generated_Source\PSoC4/cyPm.c ****     /*******************************************************************************
 287:Generated_Source\PSoC4/cyPm.c ****     * Function Name: CySysPmGetResetReason
 288:Generated_Source\PSoC4/cyPm.c ****     ****************************************************************************//**
 289:Generated_Source\PSoC4/cyPm.c ****     *
 290:Generated_Source\PSoC4/cyPm.c ****     * Retrieves the last reset reason - transition from OFF/XRES/STOP/HIBERNATE to
 291:Generated_Source\PSoC4/cyPm.c ****     * the RESET state. Note that waking up from STOP using XRES will be perceived
 292:Generated_Source\PSoC4/cyPm.c ****     * as a general RESET.
 293:Generated_Source\PSoC4/cyPm.c ****     *
ARM GAS  C:\Users\Banni\AppData\Local\Temp\ccrMPOrK.s 			page 9


 294:Generated_Source\PSoC4/cyPm.c ****     * \return CY_PM_RESET_REASON_UNKN          Unknown reset reason.
 295:Generated_Source\PSoC4/cyPm.c ****     * \return CY_PM_RESET_REASON_XRES          Transition from OFF/XRES to RESET
 296:Generated_Source\PSoC4/cyPm.c ****     * \return CY_PM_RESET_REASON_WAKEUP_HIB    Transition/wakeup from HIBERNATE to RESET
 297:Generated_Source\PSoC4/cyPm.c ****     * \return CY_PM_RESET_REASON_WAKEUP_STOP   Transition/wakeup from STOP to RESET
 298:Generated_Source\PSoC4/cyPm.c ****     *
 299:Generated_Source\PSoC4/cyPm.c ****     *******************************************************************************/
 300:Generated_Source\PSoC4/cyPm.c ****     uint32 CySysPmGetResetReason(void)
 301:Generated_Source\PSoC4/cyPm.c ****     {
 302:Generated_Source\PSoC4/cyPm.c ****         uint32 reason = CY_PM_RESET_REASON_UNKN;
 303:Generated_Source\PSoC4/cyPm.c **** 
 304:Generated_Source\PSoC4/cyPm.c ****         switch(CY_PM_PWR_STOP_REG & CY_PM_PWR_STOP_TOKEN_MASK)
 305:Generated_Source\PSoC4/cyPm.c ****         {
 306:Generated_Source\PSoC4/cyPm.c ****         /* Power up, XRES */
 307:Generated_Source\PSoC4/cyPm.c ****         case CY_PM_PWR_STOP_TOKEN_XRES:
 308:Generated_Source\PSoC4/cyPm.c ****             reason = CY_PM_RESET_REASON_XRES;
 309:Generated_Source\PSoC4/cyPm.c ****             break;
 310:Generated_Source\PSoC4/cyPm.c **** 
 311:Generated_Source\PSoC4/cyPm.c ****         /* Wakeup from Hibernate */
 312:Generated_Source\PSoC4/cyPm.c ****         case CY_PM_PWR_STOP_TOKEN_HIB:
 313:Generated_Source\PSoC4/cyPm.c ****             reason = CY_PM_RESET_REASON_WAKEUP_HIB;
 314:Generated_Source\PSoC4/cyPm.c ****             break;
 315:Generated_Source\PSoC4/cyPm.c **** 
 316:Generated_Source\PSoC4/cyPm.c ****         /* Wakeup from Stop (through WAKEUP pin assert) */
 317:Generated_Source\PSoC4/cyPm.c ****         case CY_PM_PWR_STOP_TOKEN_STOP:
 318:Generated_Source\PSoC4/cyPm.c ****             reason = CY_PM_RESET_REASON_WAKEUP_STOP;
 319:Generated_Source\PSoC4/cyPm.c ****             break;
 320:Generated_Source\PSoC4/cyPm.c **** 
 321:Generated_Source\PSoC4/cyPm.c ****         /* Unknown reason */
 322:Generated_Source\PSoC4/cyPm.c ****         default:
 323:Generated_Source\PSoC4/cyPm.c ****             break;
 324:Generated_Source\PSoC4/cyPm.c ****         }
 325:Generated_Source\PSoC4/cyPm.c **** 
 326:Generated_Source\PSoC4/cyPm.c ****         return (reason);
 327:Generated_Source\PSoC4/cyPm.c ****     }
 328:Generated_Source\PSoC4/cyPm.c **** 
 329:Generated_Source\PSoC4/cyPm.c **** 
 330:Generated_Source\PSoC4/cyPm.c ****     /*******************************************************************************
 331:Generated_Source\PSoC4/cyPm.c ****     * Function Name: CySysPmFreezeIo
 332:Generated_Source\PSoC4/cyPm.c ****     ****************************************************************************//**
 333:Generated_Source\PSoC4/cyPm.c ****     *
 334:Generated_Source\PSoC4/cyPm.c ****     * Freezes IO-Cells directly to save the IO-Cell state on wake up from the
 335:Generated_Source\PSoC4/cyPm.c ****     * Hibernate or Stop state. It is not required to call this function before
 336:Generated_Source\PSoC4/cyPm.c ****     * entering the Stop mode, since \ref CySysPmStop() function freezes IO-Cells
 337:Generated_Source\PSoC4/cyPm.c ****     * implicitly.
 338:Generated_Source\PSoC4/cyPm.c ****     *
 339:Generated_Source\PSoC4/cyPm.c ****     * This API is not available for PSoC 4000 family of devices.
 340:Generated_Source\PSoC4/cyPm.c ****     *
 341:Generated_Source\PSoC4/cyPm.c ****     *******************************************************************************/
 342:Generated_Source\PSoC4/cyPm.c ****     void CySysPmFreezeIo(void)
 343:Generated_Source\PSoC4/cyPm.c ****     {
 344:Generated_Source\PSoC4/cyPm.c ****         uint8 interruptState;
 345:Generated_Source\PSoC4/cyPm.c **** 
 346:Generated_Source\PSoC4/cyPm.c ****         interruptState = CyEnterCriticalSection();
 347:Generated_Source\PSoC4/cyPm.c **** 
 348:Generated_Source\PSoC4/cyPm.c ****         /* Check FREEZE state to avoid recurrent IO-Cells freeze attempt,
 349:Generated_Source\PSoC4/cyPm.c ****          * since the second call to this function will cause accidental switch
 350:Generated_Source\PSoC4/cyPm.c ****          * to the STOP mode (the system will enter STOP mode immediately after
ARM GAS  C:\Users\Banni\AppData\Local\Temp\ccrMPOrK.s 			page 10


 351:Generated_Source\PSoC4/cyPm.c ****          * writing to STOP bit since both UNLOCK and FREEZE have been set correctly
 352:Generated_Source\PSoC4/cyPm.c ****          * in a previous call to this function).
 353:Generated_Source\PSoC4/cyPm.c ****          */
 354:Generated_Source\PSoC4/cyPm.c ****         if (0u == (CY_PM_PWR_STOP_REG & CY_PM_PWR_STOP_FREEZE))
 355:Generated_Source\PSoC4/cyPm.c ****         {
 356:Generated_Source\PSoC4/cyPm.c ****             /* Preserve last reset reason and disable overrides the next freeze command by peripher
 357:Generated_Source\PSoC4/cyPm.c ****             CY_PM_PWR_STOP_REG = CY_PM_PWR_STOP_STOP | CY_PM_PWR_STOP_FREEZE | CY_PM_PWR_STOP_UNLOC
 358:Generated_Source\PSoC4/cyPm.c ****                                 (CY_PM_PWR_STOP_REG & (CY_PM_PWR_STOP_TOKEN_MASK | CY_PM_PWR_STOP_P
 359:Generated_Source\PSoC4/cyPm.c **** 
 360:Generated_Source\PSoC4/cyPm.c ****             /* If reading after writing, read this register three times to delay
 361:Generated_Source\PSoC4/cyPm.c ****             *  enough time for internal settling.
 362:Generated_Source\PSoC4/cyPm.c ****             */
 363:Generated_Source\PSoC4/cyPm.c ****             (void) CY_PM_PWR_STOP_REG;
 364:Generated_Source\PSoC4/cyPm.c ****             (void) CY_PM_PWR_STOP_REG;
 365:Generated_Source\PSoC4/cyPm.c **** 
 366:Generated_Source\PSoC4/cyPm.c ****             /* Second write causes the freeze of IO-Cells to save IO-Cell state */
 367:Generated_Source\PSoC4/cyPm.c ****             CY_PM_PWR_STOP_REG = CY_PM_PWR_STOP_REG;
 368:Generated_Source\PSoC4/cyPm.c ****         }
 369:Generated_Source\PSoC4/cyPm.c **** 
 370:Generated_Source\PSoC4/cyPm.c ****         CyExitCriticalSection(interruptState);
 371:Generated_Source\PSoC4/cyPm.c ****     }
 372:Generated_Source\PSoC4/cyPm.c **** 
 373:Generated_Source\PSoC4/cyPm.c **** 
 374:Generated_Source\PSoC4/cyPm.c ****     /*******************************************************************************
 375:Generated_Source\PSoC4/cyPm.c ****     * Function Name: CySysPmUnfreezeIo
 376:Generated_Source\PSoC4/cyPm.c ****     ****************************************************************************//**
 377:Generated_Source\PSoC4/cyPm.c ****     *
 378:Generated_Source\PSoC4/cyPm.c ****     * The IO-Cells remain frozen after awake from Hibernate or Stop mode until
 379:Generated_Source\PSoC4/cyPm.c ****     * the firmware unfreezes them after booting. The call of this function
 380:Generated_Source\PSoC4/cyPm.c ****     * unfreezes IO-Cells explicitly.
 381:Generated_Source\PSoC4/cyPm.c ****     *
 382:Generated_Source\PSoC4/cyPm.c ****     * If the firmware intent is to retain the data value on the port, then the
 383:Generated_Source\PSoC4/cyPm.c ****     * value must be read and re-written to the data register before calling this
 384:Generated_Source\PSoC4/cyPm.c ****     * API. Furthermore, the drive mode must be re-programmed.  If this is not done,
 385:Generated_Source\PSoC4/cyPm.c ****     * the pin state will change to default state the moment the freeze is removed.
 386:Generated_Source\PSoC4/cyPm.c ****     *
 387:Generated_Source\PSoC4/cyPm.c ****     * This API is not available for PSoC 4000 family of devices.
 388:Generated_Source\PSoC4/cyPm.c ****     *
 389:Generated_Source\PSoC4/cyPm.c ****     *******************************************************************************/
 390:Generated_Source\PSoC4/cyPm.c ****     void CySysPmUnfreezeIo(void)
 391:Generated_Source\PSoC4/cyPm.c ****     {
 392:Generated_Source\PSoC4/cyPm.c ****         uint8 interruptState;
 393:Generated_Source\PSoC4/cyPm.c **** 
 394:Generated_Source\PSoC4/cyPm.c ****         interruptState = CyEnterCriticalSection();
 395:Generated_Source\PSoC4/cyPm.c **** 
 396:Generated_Source\PSoC4/cyPm.c ****         /* Preserve last reset reason and wakeup polarity. Then, unfreeze I/O:
 397:Generated_Source\PSoC4/cyPm.c ****          * write PWR_STOP.FREEZE=0, .UNLOCK=0x3A, .STOP=0, .TOKEN
 398:Generated_Source\PSoC4/cyPm.c ****          */
 399:Generated_Source\PSoC4/cyPm.c ****         CY_PM_PWR_STOP_REG = CY_PM_PWR_STOP_UNLOCK |
 400:Generated_Source\PSoC4/cyPm.c ****                             (CY_PM_PWR_STOP_REG & (CY_PM_PWR_STOP_TOKEN_MASK | CY_PM_PWR_STOP_POLAR
 401:Generated_Source\PSoC4/cyPm.c **** 
 402:Generated_Source\PSoC4/cyPm.c ****         /* If reading after writing, read this register three times to delay
 403:Generated_Source\PSoC4/cyPm.c ****         *  enough time for internal settling.
 404:Generated_Source\PSoC4/cyPm.c ****         */
 405:Generated_Source\PSoC4/cyPm.c ****         (void) CY_PM_PWR_STOP_REG;
 406:Generated_Source\PSoC4/cyPm.c ****         (void) CY_PM_PWR_STOP_REG;
 407:Generated_Source\PSoC4/cyPm.c **** 
ARM GAS  C:\Users\Banni\AppData\Local\Temp\ccrMPOrK.s 			page 11


 408:Generated_Source\PSoC4/cyPm.c ****         /* Lock STOP mode: write PWR_STOP.FREEZE=0, UNLOCK=0x00, STOP=0, .TOKEN */
 409:Generated_Source\PSoC4/cyPm.c ****         CY_PM_PWR_STOP_REG &= (CY_PM_PWR_STOP_TOKEN_MASK | CY_PM_PWR_STOP_POLARITY);
 410:Generated_Source\PSoC4/cyPm.c **** 
 411:Generated_Source\PSoC4/cyPm.c ****         CyExitCriticalSection(interruptState);
 412:Generated_Source\PSoC4/cyPm.c ****     }
 413:Generated_Source\PSoC4/cyPm.c **** 
 414:Generated_Source\PSoC4/cyPm.c **** #else
 415:Generated_Source\PSoC4/cyPm.c **** 
 416:Generated_Source\PSoC4/cyPm.c ****     /*******************************************************************************
 417:Generated_Source\PSoC4/cyPm.c ****     * Function Name: CySysPmSetWakeupHoldoff
 418:Generated_Source\PSoC4/cyPm.c ****     ****************************************************************************//**
 419:Generated_Source\PSoC4/cyPm.c ****     *
 420:Generated_Source\PSoC4/cyPm.c ****     * Sets the Deep Sleep wakeup time by scaling the hold-off to the HFCLK
 421:Generated_Source\PSoC4/cyPm.c ****     * frequency.
 422:Generated_Source\PSoC4/cyPm.c ****     *
 423:Generated_Source\PSoC4/cyPm.c ****     * This function must be called before increasing HFCLK clock frequency. It can
 424:Generated_Source\PSoC4/cyPm.c ****     * optionally be called after lowering HFCLK clock frequency in order to improve
 425:Generated_Source\PSoC4/cyPm.c ****     * Deep Sleep wakeup time.
 426:Generated_Source\PSoC4/cyPm.c ****     *
 427:Generated_Source\PSoC4/cyPm.c ****     * It is functionally acceptable to leave the default hold-off setting, but
 428:Generated_Source\PSoC4/cyPm.c ****     * Deep Sleep wakeup time may exceed the specification.
 429:Generated_Source\PSoC4/cyPm.c ****     *
 430:Generated_Source\PSoC4/cyPm.c ****     * This function is applicable only for the 4000 device family.
 431:Generated_Source\PSoC4/cyPm.c ****     *
 432:Generated_Source\PSoC4/cyPm.c ****     * \param hfclkFrequencyMhz The HFCLK frequency in MHz.
 433:Generated_Source\PSoC4/cyPm.c ****     *
 434:Generated_Source\PSoC4/cyPm.c ****     *******************************************************************************/
 435:Generated_Source\PSoC4/cyPm.c ****     void CySysPmSetWakeupHoldoff(uint32 hfclkFrequencyMhz)
 436:Generated_Source\PSoC4/cyPm.c ****     {
 164              		.loc 1 436 0
 165              		.cfi_startproc
 166              		@ args = 0, pretend = 0, frame = 0
 167              		@ frame_needed = 0, uses_anonymous_args = 0
 168              		@ link register save eliminated.
 169              	.LVL7:
 437:Generated_Source\PSoC4/cyPm.c ****         CY_PM_PWR_KEY_DELAY_REG = ((((uint32)(CY_PM_PWR_KEY_DELAY_REG_DEFAULT << 16u) /
 438:Generated_Source\PSoC4/cyPm.c ****             CY_PM_PWR_KEY_DELAY_FREQ_DEFAULT) * hfclkFrequencyMhz) >> 16u) + 1u;
 170              		.loc 1 438 0
 171 0000 034B     		ldr	r3, .L10
 172 0002 5843     		muls	r0, r3
 173              	.LVL8:
 174 0004 000C     		lsrs	r0, r0, #16
 175 0006 0130     		adds	r0, r0, #1
 437:Generated_Source\PSoC4/cyPm.c ****         CY_PM_PWR_KEY_DELAY_REG = ((((uint32)(CY_PM_PWR_KEY_DELAY_REG_DEFAULT << 16u) /
 176              		.loc 1 437 0
 177 0008 024B     		ldr	r3, .L10+4
 178 000a 1860     		str	r0, [r3]
 439:Generated_Source\PSoC4/cyPm.c ****     }
 179              		.loc 1 439 0
 180              		@ sp needed
 181 000c 7047     		bx	lr
 182              	.L11:
 183 000e C046     		.align	2
 184              	.L10:
 185 0010 AA2A0500 		.word	338602
 186 0014 04000340 		.word	1073938436
 187              		.cfi_endproc
ARM GAS  C:\Users\Banni\AppData\Local\Temp\ccrMPOrK.s 			page 12


 188              	.LFE3:
 189              		.size	CySysPmSetWakeupHoldoff, .-CySysPmSetWakeupHoldoff
 190              		.text
 191              	.Letext0:
 192              		.file 2 "Generated_Source\\PSoC4\\cytypes.h"
 193              		.file 3 "Generated_Source\\PSoC4\\CyLib.h"