ARM GAS  C:\Users\Muneeb\AppData\Local\Temp\ccEHy26d.s 			page 1


   1              		.syntax unified
   2              		.cpu cortex-m0
   3              		.fpu softvfp
   4              		.eabi_attribute 20, 1
   5              		.eabi_attribute 21, 1
   6              		.eabi_attribute 23, 3
   7              		.eabi_attribute 24, 1
   8              		.eabi_attribute 25, 1
   9              		.eabi_attribute 26, 1
  10              		.eabi_attribute 30, 6
  11              		.eabi_attribute 34, 0
  12              		.eabi_attribute 18, 4
  13              		.thumb
  14              		.syntax unified
  15              		.file	"ledDimmer.c"
  16              		.text
  17              	.Ltext0:
  18              		.cfi_sections	.debug_frame
  19              		.global	ledDimmer_initVar
  20              		.bss
  21              		.type	ledDimmer_initVar, %object
  22              		.size	ledDimmer_initVar, 1
  23              	ledDimmer_initVar:
  24 0000 00       		.space	1
  25              		.section	.text.ledDimmer_Start,"ax",%progbits
  26              		.align	2
  27              		.global	ledDimmer_Start
  28              		.code	16
  29              		.thumb_func
  30              		.type	ledDimmer_Start, %function
  31              	ledDimmer_Start:
  32              	.LFB2:
  33              		.file 1 "Generated_Source\\PSoC4\\ledDimmer.c"
   1:Generated_Source\PSoC4/ledDimmer.c **** /*******************************************************************************
   2:Generated_Source\PSoC4/ledDimmer.c **** * File Name: ledDimmer.c
   3:Generated_Source\PSoC4/ledDimmer.c **** * Version 3.30
   4:Generated_Source\PSoC4/ledDimmer.c **** *
   5:Generated_Source\PSoC4/ledDimmer.c **** * Description:
   6:Generated_Source\PSoC4/ledDimmer.c **** *  The PWM User Module consist of an 8 or 16-bit counter with two 8 or 16-bit
   7:Generated_Source\PSoC4/ledDimmer.c **** *  comparitors. Each instance of this user module is capable of generating
   8:Generated_Source\PSoC4/ledDimmer.c **** *  two PWM outputs with the same period. The pulse width is selectable between
   9:Generated_Source\PSoC4/ledDimmer.c **** *  1 and 255/65535. The period is selectable between 2 and 255/65536 clocks.
  10:Generated_Source\PSoC4/ledDimmer.c **** *  The compare value output may be configured to be active when the present
  11:Generated_Source\PSoC4/ledDimmer.c **** *  counter is less than or less than/equal to the compare value.
  12:Generated_Source\PSoC4/ledDimmer.c **** *  A terminal count output is also provided. It generates a pulse one clock
  13:Generated_Source\PSoC4/ledDimmer.c **** *  width wide when the counter is equal to zero.
  14:Generated_Source\PSoC4/ledDimmer.c **** *
  15:Generated_Source\PSoC4/ledDimmer.c **** * Note:
  16:Generated_Source\PSoC4/ledDimmer.c **** *
  17:Generated_Source\PSoC4/ledDimmer.c **** *******************************************************************************
  18:Generated_Source\PSoC4/ledDimmer.c **** * Copyright 2008-2014, Cypress Semiconductor Corporation.  All rights reserved.
  19:Generated_Source\PSoC4/ledDimmer.c **** * You may use this file only in accordance with the license, terms, conditions,
  20:Generated_Source\PSoC4/ledDimmer.c **** * disclaimers, and limitations in the end user license agreement accompanying
  21:Generated_Source\PSoC4/ledDimmer.c **** * the software package with which this file was provided.
  22:Generated_Source\PSoC4/ledDimmer.c **** ********************************************************************************/
  23:Generated_Source\PSoC4/ledDimmer.c **** 
  24:Generated_Source\PSoC4/ledDimmer.c **** #include "ledDimmer.h"
ARM GAS  C:\Users\Muneeb\AppData\Local\Temp\ccEHy26d.s 			page 2


  25:Generated_Source\PSoC4/ledDimmer.c **** 
  26:Generated_Source\PSoC4/ledDimmer.c **** /* Error message for removed <resource> through optimization */
  27:Generated_Source\PSoC4/ledDimmer.c **** #ifdef ledDimmer_PWMUDB_genblk1_ctrlreg__REMOVED
  28:Generated_Source\PSoC4/ledDimmer.c ****     #error PWM_v3_30 detected with a constant 0 for the enable or \
  29:Generated_Source\PSoC4/ledDimmer.c ****          constant 1 for reset. This will prevent the component from operating.
  30:Generated_Source\PSoC4/ledDimmer.c **** #endif /* ledDimmer_PWMUDB_genblk1_ctrlreg__REMOVED */
  31:Generated_Source\PSoC4/ledDimmer.c **** 
  32:Generated_Source\PSoC4/ledDimmer.c **** uint8 ledDimmer_initVar = 0u;
  33:Generated_Source\PSoC4/ledDimmer.c **** 
  34:Generated_Source\PSoC4/ledDimmer.c **** 
  35:Generated_Source\PSoC4/ledDimmer.c **** /*******************************************************************************
  36:Generated_Source\PSoC4/ledDimmer.c **** * Function Name: ledDimmer_Start
  37:Generated_Source\PSoC4/ledDimmer.c **** ********************************************************************************
  38:Generated_Source\PSoC4/ledDimmer.c **** *
  39:Generated_Source\PSoC4/ledDimmer.c **** * Summary:
  40:Generated_Source\PSoC4/ledDimmer.c **** *  The start function initializes the pwm with the default values, the
  41:Generated_Source\PSoC4/ledDimmer.c **** *  enables the counter to begin counting.  It does not enable interrupts,
  42:Generated_Source\PSoC4/ledDimmer.c **** *  the EnableInt command should be called if interrupt generation is required.
  43:Generated_Source\PSoC4/ledDimmer.c **** *
  44:Generated_Source\PSoC4/ledDimmer.c **** * Parameters:
  45:Generated_Source\PSoC4/ledDimmer.c **** *  None
  46:Generated_Source\PSoC4/ledDimmer.c **** *
  47:Generated_Source\PSoC4/ledDimmer.c **** * Return:
  48:Generated_Source\PSoC4/ledDimmer.c **** *  None
  49:Generated_Source\PSoC4/ledDimmer.c **** *
  50:Generated_Source\PSoC4/ledDimmer.c **** * Global variables:
  51:Generated_Source\PSoC4/ledDimmer.c **** *  ledDimmer_initVar: Is modified when this function is called for the
  52:Generated_Source\PSoC4/ledDimmer.c **** *   first time. Is used to ensure that initialization happens only once.
  53:Generated_Source\PSoC4/ledDimmer.c **** *
  54:Generated_Source\PSoC4/ledDimmer.c **** *******************************************************************************/
  55:Generated_Source\PSoC4/ledDimmer.c **** void ledDimmer_Start(void) 
  56:Generated_Source\PSoC4/ledDimmer.c **** {
  34              		.loc 1 56 0
  35              		.cfi_startproc
  36              		@ args = 0, pretend = 0, frame = 0
  37              		@ frame_needed = 1, uses_anonymous_args = 0
  38 0000 80B5     		push	{r7, lr}
  39              		.cfi_def_cfa_offset 8
  40              		.cfi_offset 7, -8
  41              		.cfi_offset 14, -4
  42 0002 00AF     		add	r7, sp, #0
  43              		.cfi_def_cfa_register 7
  57:Generated_Source\PSoC4/ledDimmer.c ****     /* If not Initialized then initialize all required hardware and software */
  58:Generated_Source\PSoC4/ledDimmer.c ****     if(ledDimmer_initVar == 0u)
  44              		.loc 1 58 0
  45 0004 064B     		ldr	r3, .L3
  46 0006 1B78     		ldrb	r3, [r3]
  47 0008 002B     		cmp	r3, #0
  48 000a 04D1     		bne	.L2
  59:Generated_Source\PSoC4/ledDimmer.c ****     {
  60:Generated_Source\PSoC4/ledDimmer.c ****         ledDimmer_Init();
  49              		.loc 1 60 0
  50 000c FFF7FEFF 		bl	ledDimmer_Init
  61:Generated_Source\PSoC4/ledDimmer.c ****         ledDimmer_initVar = 1u;
  51              		.loc 1 61 0
  52 0010 034B     		ldr	r3, .L3
  53 0012 0122     		movs	r2, #1
ARM GAS  C:\Users\Muneeb\AppData\Local\Temp\ccEHy26d.s 			page 3


  54 0014 1A70     		strb	r2, [r3]
  55              	.L2:
  62:Generated_Source\PSoC4/ledDimmer.c ****     }
  63:Generated_Source\PSoC4/ledDimmer.c ****     ledDimmer_Enable();
  56              		.loc 1 63 0
  57 0016 FFF7FEFF 		bl	ledDimmer_Enable
  64:Generated_Source\PSoC4/ledDimmer.c **** 
  65:Generated_Source\PSoC4/ledDimmer.c **** }
  58              		.loc 1 65 0
  59 001a C046     		nop
  60 001c BD46     		mov	sp, r7
  61              		@ sp needed
  62 001e 80BD     		pop	{r7, pc}
  63              	.L4:
  64              		.align	2
  65              	.L3:
  66 0020 00000000 		.word	ledDimmer_initVar
  67              		.cfi_endproc
  68              	.LFE2:
  69              		.size	ledDimmer_Start, .-ledDimmer_Start
  70              		.section	.text.ledDimmer_Init,"ax",%progbits
  71              		.align	2
  72              		.global	ledDimmer_Init
  73              		.code	16
  74              		.thumb_func
  75              		.type	ledDimmer_Init, %function
  76              	ledDimmer_Init:
  77              	.LFB3:
  66:Generated_Source\PSoC4/ledDimmer.c **** 
  67:Generated_Source\PSoC4/ledDimmer.c **** 
  68:Generated_Source\PSoC4/ledDimmer.c **** /*******************************************************************************
  69:Generated_Source\PSoC4/ledDimmer.c **** * Function Name: ledDimmer_Init
  70:Generated_Source\PSoC4/ledDimmer.c **** ********************************************************************************
  71:Generated_Source\PSoC4/ledDimmer.c **** *
  72:Generated_Source\PSoC4/ledDimmer.c **** * Summary:
  73:Generated_Source\PSoC4/ledDimmer.c **** *  Initialize component's parameters to the parameters set by user in the
  74:Generated_Source\PSoC4/ledDimmer.c **** *  customizer of the component placed onto schematic. Usually called in
  75:Generated_Source\PSoC4/ledDimmer.c **** *  ledDimmer_Start().
  76:Generated_Source\PSoC4/ledDimmer.c **** *
  77:Generated_Source\PSoC4/ledDimmer.c **** * Parameters:
  78:Generated_Source\PSoC4/ledDimmer.c **** *  None
  79:Generated_Source\PSoC4/ledDimmer.c **** *
  80:Generated_Source\PSoC4/ledDimmer.c **** * Return:
  81:Generated_Source\PSoC4/ledDimmer.c **** *  None
  82:Generated_Source\PSoC4/ledDimmer.c **** *
  83:Generated_Source\PSoC4/ledDimmer.c **** *******************************************************************************/
  84:Generated_Source\PSoC4/ledDimmer.c **** void ledDimmer_Init(void) 
  85:Generated_Source\PSoC4/ledDimmer.c **** {
  78              		.loc 1 85 0
  79              		.cfi_startproc
  80              		@ args = 0, pretend = 0, frame = 8
  81              		@ frame_needed = 1, uses_anonymous_args = 0
  82 0000 90B5     		push	{r4, r7, lr}
  83              		.cfi_def_cfa_offset 12
  84              		.cfi_offset 4, -12
  85              		.cfi_offset 7, -8
  86              		.cfi_offset 14, -4
ARM GAS  C:\Users\Muneeb\AppData\Local\Temp\ccEHy26d.s 			page 4


  87 0002 83B0     		sub	sp, sp, #12
  88              		.cfi_def_cfa_offset 24
  89 0004 00AF     		add	r7, sp, #0
  90              		.cfi_def_cfa_register 7
  86:Generated_Source\PSoC4/ledDimmer.c ****     #if (ledDimmer_UsingFixedFunction || ledDimmer_UseControl)
  87:Generated_Source\PSoC4/ledDimmer.c ****         uint8 ctrl;
  88:Generated_Source\PSoC4/ledDimmer.c ****     #endif /* (ledDimmer_UsingFixedFunction || ledDimmer_UseControl) */
  89:Generated_Source\PSoC4/ledDimmer.c **** 
  90:Generated_Source\PSoC4/ledDimmer.c ****     #if(!ledDimmer_UsingFixedFunction)
  91:Generated_Source\PSoC4/ledDimmer.c ****         #if(ledDimmer_UseStatus)
  92:Generated_Source\PSoC4/ledDimmer.c ****             /* Interrupt State Backup for Critical Region*/
  93:Generated_Source\PSoC4/ledDimmer.c ****             uint8 ledDimmer_interruptState;
  94:Generated_Source\PSoC4/ledDimmer.c ****         #endif /* (ledDimmer_UseStatus) */
  95:Generated_Source\PSoC4/ledDimmer.c ****     #endif /* (!ledDimmer_UsingFixedFunction) */
  96:Generated_Source\PSoC4/ledDimmer.c **** 
  97:Generated_Source\PSoC4/ledDimmer.c ****     #if (ledDimmer_UsingFixedFunction)
  98:Generated_Source\PSoC4/ledDimmer.c ****         /* You are allowed to write the compare value (FF only) */
  99:Generated_Source\PSoC4/ledDimmer.c ****         ledDimmer_CONTROL |= ledDimmer_CFG0_MODE;
 100:Generated_Source\PSoC4/ledDimmer.c ****         #if (ledDimmer_DeadBand2_4)
 101:Generated_Source\PSoC4/ledDimmer.c ****             ledDimmer_CONTROL |= ledDimmer_CFG0_DB;
 102:Generated_Source\PSoC4/ledDimmer.c ****         #endif /* (ledDimmer_DeadBand2_4) */
 103:Generated_Source\PSoC4/ledDimmer.c **** 
 104:Generated_Source\PSoC4/ledDimmer.c ****         ctrl = ledDimmer_CONTROL3 & ((uint8 )(~ledDimmer_CTRL_CMPMODE1_MASK));
 105:Generated_Source\PSoC4/ledDimmer.c ****         ledDimmer_CONTROL3 = ctrl | ledDimmer_DEFAULT_COMPARE1_MODE;
 106:Generated_Source\PSoC4/ledDimmer.c **** 
 107:Generated_Source\PSoC4/ledDimmer.c ****          /* Clear and Set SYNCTC and SYNCCMP bits of RT1 register */
 108:Generated_Source\PSoC4/ledDimmer.c ****         ledDimmer_RT1 &= ((uint8)(~ledDimmer_RT1_MASK));
 109:Generated_Source\PSoC4/ledDimmer.c ****         ledDimmer_RT1 |= ledDimmer_SYNC;
 110:Generated_Source\PSoC4/ledDimmer.c **** 
 111:Generated_Source\PSoC4/ledDimmer.c ****         /*Enable DSI Sync all all inputs of the PWM*/
 112:Generated_Source\PSoC4/ledDimmer.c ****         ledDimmer_RT1 &= ((uint8)(~ledDimmer_SYNCDSI_MASK));
 113:Generated_Source\PSoC4/ledDimmer.c ****         ledDimmer_RT1 |= ledDimmer_SYNCDSI_EN;
 114:Generated_Source\PSoC4/ledDimmer.c **** 
 115:Generated_Source\PSoC4/ledDimmer.c ****     #elif (ledDimmer_UseControl)
 116:Generated_Source\PSoC4/ledDimmer.c ****         /* Set the default compare mode defined in the parameter */
 117:Generated_Source\PSoC4/ledDimmer.c ****         ctrl = ledDimmer_CONTROL & ((uint8)(~ledDimmer_CTRL_CMPMODE2_MASK)) &
  91              		.loc 1 117 0
  92 0006 224B     		ldr	r3, .L6
  93 0008 1B78     		ldrb	r3, [r3]
  94 000a DAB2     		uxtb	r2, r3
  95 000c FB1D     		adds	r3, r7, #7
  96 000e 3F21     		movs	r1, #63
  97 0010 8A43     		bics	r2, r1
  98 0012 1A70     		strb	r2, [r3]
 118:Generated_Source\PSoC4/ledDimmer.c ****                 ((uint8)(~ledDimmer_CTRL_CMPMODE1_MASK));
 119:Generated_Source\PSoC4/ledDimmer.c ****         ledDimmer_CONTROL = ctrl | ledDimmer_DEFAULT_COMPARE2_MODE |
  99              		.loc 1 119 0
 100 0014 1E4A     		ldr	r2, .L6
 101 0016 FB1D     		adds	r3, r7, #7
 102 0018 1B78     		ldrb	r3, [r3]
 103 001a 0C21     		movs	r1, #12
 104 001c 0B43     		orrs	r3, r1
 105 001e DBB2     		uxtb	r3, r3
 106 0020 1370     		strb	r3, [r2]
 120:Generated_Source\PSoC4/ledDimmer.c ****                                    ledDimmer_DEFAULT_COMPARE1_MODE;
 121:Generated_Source\PSoC4/ledDimmer.c ****     #endif /* (ledDimmer_UsingFixedFunction) */
 122:Generated_Source\PSoC4/ledDimmer.c **** 
ARM GAS  C:\Users\Muneeb\AppData\Local\Temp\ccEHy26d.s 			page 5


 123:Generated_Source\PSoC4/ledDimmer.c ****     #if (!ledDimmer_UsingFixedFunction)
 124:Generated_Source\PSoC4/ledDimmer.c ****         #if (ledDimmer_Resolution == 8)
 125:Generated_Source\PSoC4/ledDimmer.c ****             /* Set FIFO 0 to 1 byte register for period*/
 126:Generated_Source\PSoC4/ledDimmer.c ****             ledDimmer_AUX_CONTROLDP0 |= (ledDimmer_AUX_CTRL_FIFO0_CLR);
 127:Generated_Source\PSoC4/ledDimmer.c ****         #else /* (ledDimmer_Resolution == 16)*/
 128:Generated_Source\PSoC4/ledDimmer.c ****             /* Set FIFO 0 to 1 byte register for period */
 129:Generated_Source\PSoC4/ledDimmer.c ****             ledDimmer_AUX_CONTROLDP0 |= (ledDimmer_AUX_CTRL_FIFO0_CLR);
 107              		.loc 1 129 0
 108 0022 1C4A     		ldr	r2, .L6+4
 109 0024 1B4B     		ldr	r3, .L6+4
 110 0026 1B78     		ldrb	r3, [r3]
 111 0028 DBB2     		uxtb	r3, r3
 112 002a 0121     		movs	r1, #1
 113 002c 0B43     		orrs	r3, r1
 114 002e DBB2     		uxtb	r3, r3
 115 0030 1370     		strb	r3, [r2]
 130:Generated_Source\PSoC4/ledDimmer.c ****             ledDimmer_AUX_CONTROLDP1 |= (ledDimmer_AUX_CTRL_FIFO0_CLR);
 116              		.loc 1 130 0
 117 0032 194A     		ldr	r2, .L6+8
 118 0034 184B     		ldr	r3, .L6+8
 119 0036 1B78     		ldrb	r3, [r3]
 120 0038 DBB2     		uxtb	r3, r3
 121 003a 0121     		movs	r1, #1
 122 003c 0B43     		orrs	r3, r1
 123 003e DBB2     		uxtb	r3, r3
 124 0040 1370     		strb	r3, [r2]
 131:Generated_Source\PSoC4/ledDimmer.c ****         #endif /* (ledDimmer_Resolution == 8) */
 132:Generated_Source\PSoC4/ledDimmer.c **** 
 133:Generated_Source\PSoC4/ledDimmer.c ****         ledDimmer_WriteCounter(ledDimmer_INIT_PERIOD_VALUE);
 125              		.loc 1 133 0
 126 0042 164B     		ldr	r3, .L6+12
 127 0044 1800     		movs	r0, r3
 128 0046 FFF7FEFF 		bl	ledDimmer_WriteCounter
 134:Generated_Source\PSoC4/ledDimmer.c ****     #endif /* (!ledDimmer_UsingFixedFunction) */
 135:Generated_Source\PSoC4/ledDimmer.c **** 
 136:Generated_Source\PSoC4/ledDimmer.c ****     ledDimmer_WritePeriod(ledDimmer_INIT_PERIOD_VALUE);
 129              		.loc 1 136 0
 130 004a 144B     		ldr	r3, .L6+12
 131 004c 1800     		movs	r0, r3
 132 004e FFF7FEFF 		bl	ledDimmer_WritePeriod
 137:Generated_Source\PSoC4/ledDimmer.c **** 
 138:Generated_Source\PSoC4/ledDimmer.c ****         #if (ledDimmer_UseOneCompareMode)
 139:Generated_Source\PSoC4/ledDimmer.c ****             ledDimmer_WriteCompare(ledDimmer_INIT_COMPARE_VALUE1);
 133              		.loc 1 139 0
 134 0052 0020     		movs	r0, #0
 135 0054 FFF7FEFF 		bl	ledDimmer_WriteCompare
 140:Generated_Source\PSoC4/ledDimmer.c ****         #else
 141:Generated_Source\PSoC4/ledDimmer.c ****             ledDimmer_WriteCompare1(ledDimmer_INIT_COMPARE_VALUE1);
 142:Generated_Source\PSoC4/ledDimmer.c ****             ledDimmer_WriteCompare2(ledDimmer_INIT_COMPARE_VALUE2);
 143:Generated_Source\PSoC4/ledDimmer.c ****         #endif /* (ledDimmer_UseOneCompareMode) */
 144:Generated_Source\PSoC4/ledDimmer.c **** 
 145:Generated_Source\PSoC4/ledDimmer.c ****         #if (ledDimmer_KillModeMinTime)
 146:Generated_Source\PSoC4/ledDimmer.c ****             ledDimmer_WriteKillTime(ledDimmer_MinimumKillTime);
 147:Generated_Source\PSoC4/ledDimmer.c ****         #endif /* (ledDimmer_KillModeMinTime) */
 148:Generated_Source\PSoC4/ledDimmer.c **** 
 149:Generated_Source\PSoC4/ledDimmer.c ****         #if (ledDimmer_DeadBandUsed)
 150:Generated_Source\PSoC4/ledDimmer.c ****             ledDimmer_WriteDeadTime(ledDimmer_INIT_DEAD_TIME);
ARM GAS  C:\Users\Muneeb\AppData\Local\Temp\ccEHy26d.s 			page 6


 151:Generated_Source\PSoC4/ledDimmer.c ****         #endif /* (ledDimmer_DeadBandUsed) */
 152:Generated_Source\PSoC4/ledDimmer.c **** 
 153:Generated_Source\PSoC4/ledDimmer.c ****     #if (ledDimmer_UseStatus || ledDimmer_UsingFixedFunction)
 154:Generated_Source\PSoC4/ledDimmer.c ****         ledDimmer_SetInterruptMode(ledDimmer_INIT_INTERRUPTS_MODE);
 136              		.loc 1 154 0
 137 0058 0020     		movs	r0, #0
 138 005a FFF7FEFF 		bl	ledDimmer_SetInterruptMode
 155:Generated_Source\PSoC4/ledDimmer.c ****     #endif /* (ledDimmer_UseStatus || ledDimmer_UsingFixedFunction) */
 156:Generated_Source\PSoC4/ledDimmer.c **** 
 157:Generated_Source\PSoC4/ledDimmer.c ****     #if (ledDimmer_UsingFixedFunction)
 158:Generated_Source\PSoC4/ledDimmer.c ****         /* Globally Enable the Fixed Function Block chosen */
 159:Generated_Source\PSoC4/ledDimmer.c ****         ledDimmer_GLOBAL_ENABLE |= ledDimmer_BLOCK_EN_MASK;
 160:Generated_Source\PSoC4/ledDimmer.c ****         /* Set the Interrupt source to come from the status register */
 161:Generated_Source\PSoC4/ledDimmer.c ****         ledDimmer_CONTROL2 |= ledDimmer_CTRL2_IRQ_SEL;
 162:Generated_Source\PSoC4/ledDimmer.c ****     #else
 163:Generated_Source\PSoC4/ledDimmer.c ****         #if(ledDimmer_UseStatus)
 164:Generated_Source\PSoC4/ledDimmer.c **** 
 165:Generated_Source\PSoC4/ledDimmer.c ****             /* CyEnterCriticalRegion and CyExitCriticalRegion are used to mark following region cri
 166:Generated_Source\PSoC4/ledDimmer.c ****             /* Enter Critical Region*/
 167:Generated_Source\PSoC4/ledDimmer.c ****             ledDimmer_interruptState = CyEnterCriticalSection();
 139              		.loc 1 167 0
 140 005e BC1D     		adds	r4, r7, #6
 141 0060 FFF7FEFF 		bl	CyEnterCriticalSection
 142 0064 0300     		movs	r3, r0
 143 0066 2370     		strb	r3, [r4]
 168:Generated_Source\PSoC4/ledDimmer.c ****             /* Use the interrupt output of the status register for IRQ output */
 169:Generated_Source\PSoC4/ledDimmer.c ****             ledDimmer_STATUS_AUX_CTRL |= ledDimmer_STATUS_ACTL_INT_EN_MASK;
 144              		.loc 1 169 0
 145 0068 0B4A     		ldr	r2, .L6+8
 146 006a 0B4B     		ldr	r3, .L6+8
 147 006c 1B78     		ldrb	r3, [r3]
 148 006e DBB2     		uxtb	r3, r3
 149 0070 1021     		movs	r1, #16
 150 0072 0B43     		orrs	r3, r1
 151 0074 DBB2     		uxtb	r3, r3
 152 0076 1370     		strb	r3, [r2]
 170:Generated_Source\PSoC4/ledDimmer.c **** 
 171:Generated_Source\PSoC4/ledDimmer.c ****              /* Exit Critical Region*/
 172:Generated_Source\PSoC4/ledDimmer.c ****             CyExitCriticalSection(ledDimmer_interruptState);
 153              		.loc 1 172 0
 154 0078 BB1D     		adds	r3, r7, #6
 155 007a 1B78     		ldrb	r3, [r3]
 156 007c 1800     		movs	r0, r3
 157 007e FFF7FEFF 		bl	CyExitCriticalSection
 173:Generated_Source\PSoC4/ledDimmer.c **** 
 174:Generated_Source\PSoC4/ledDimmer.c ****             /* Clear the FIFO to enable the ledDimmer_STATUS_FIFOFULL
 175:Generated_Source\PSoC4/ledDimmer.c ****                    bit to be set on FIFO full. */
 176:Generated_Source\PSoC4/ledDimmer.c ****             ledDimmer_ClearFIFO();
 158              		.loc 1 176 0
 159 0082 FFF7FEFF 		bl	ledDimmer_ClearFIFO
 177:Generated_Source\PSoC4/ledDimmer.c ****         #endif /* (ledDimmer_UseStatus) */
 178:Generated_Source\PSoC4/ledDimmer.c ****     #endif /* (ledDimmer_UsingFixedFunction) */
 179:Generated_Source\PSoC4/ledDimmer.c **** }
 160              		.loc 1 179 0
 161 0086 C046     		nop
 162 0088 BD46     		mov	sp, r7
 163 008a 03B0     		add	sp, sp, #12
ARM GAS  C:\Users\Muneeb\AppData\Local\Temp\ccEHy26d.s 			page 7


 164              		@ sp needed
 165 008c 90BD     		pop	{r4, r7, pc}
 166              	.L7:
 167 008e C046     		.align	2
 168              	.L6:
 169 0090 73000F40 		.word	1074724979
 170 0094 92000F40 		.word	1074725010
 171 0098 93000F40 		.word	1074725011
 172 009c E02E0000 		.word	12000
 173              		.cfi_endproc
 174              	.LFE3:
 175              		.size	ledDimmer_Init, .-ledDimmer_Init
 176              		.section	.text.ledDimmer_Enable,"ax",%progbits
 177              		.align	2
 178              		.global	ledDimmer_Enable
 179              		.code	16
 180              		.thumb_func
 181              		.type	ledDimmer_Enable, %function
 182              	ledDimmer_Enable:
 183              	.LFB4:
 180:Generated_Source\PSoC4/ledDimmer.c **** 
 181:Generated_Source\PSoC4/ledDimmer.c **** 
 182:Generated_Source\PSoC4/ledDimmer.c **** /*******************************************************************************
 183:Generated_Source\PSoC4/ledDimmer.c **** * Function Name: ledDimmer_Enable
 184:Generated_Source\PSoC4/ledDimmer.c **** ********************************************************************************
 185:Generated_Source\PSoC4/ledDimmer.c **** *
 186:Generated_Source\PSoC4/ledDimmer.c **** * Summary:
 187:Generated_Source\PSoC4/ledDimmer.c **** *  Enables the PWM block operation
 188:Generated_Source\PSoC4/ledDimmer.c **** *
 189:Generated_Source\PSoC4/ledDimmer.c **** * Parameters:
 190:Generated_Source\PSoC4/ledDimmer.c **** *  None
 191:Generated_Source\PSoC4/ledDimmer.c **** *
 192:Generated_Source\PSoC4/ledDimmer.c **** * Return:
 193:Generated_Source\PSoC4/ledDimmer.c **** *  None
 194:Generated_Source\PSoC4/ledDimmer.c **** *
 195:Generated_Source\PSoC4/ledDimmer.c **** * Side Effects:
 196:Generated_Source\PSoC4/ledDimmer.c **** *  This works only if software enable mode is chosen
 197:Generated_Source\PSoC4/ledDimmer.c **** *
 198:Generated_Source\PSoC4/ledDimmer.c **** *******************************************************************************/
 199:Generated_Source\PSoC4/ledDimmer.c **** void ledDimmer_Enable(void) 
 200:Generated_Source\PSoC4/ledDimmer.c **** {
 184              		.loc 1 200 0
 185              		.cfi_startproc
 186              		@ args = 0, pretend = 0, frame = 0
 187              		@ frame_needed = 1, uses_anonymous_args = 0
 188 0000 80B5     		push	{r7, lr}
 189              		.cfi_def_cfa_offset 8
 190              		.cfi_offset 7, -8
 191              		.cfi_offset 14, -4
 192 0002 00AF     		add	r7, sp, #0
 193              		.cfi_def_cfa_register 7
 201:Generated_Source\PSoC4/ledDimmer.c ****     /* Globally Enable the Fixed Function Block chosen */
 202:Generated_Source\PSoC4/ledDimmer.c ****     #if (ledDimmer_UsingFixedFunction)
 203:Generated_Source\PSoC4/ledDimmer.c ****         ledDimmer_GLOBAL_ENABLE |= ledDimmer_BLOCK_EN_MASK;
 204:Generated_Source\PSoC4/ledDimmer.c ****         ledDimmer_GLOBAL_STBY_ENABLE |= ledDimmer_BLOCK_STBY_EN_MASK;
 205:Generated_Source\PSoC4/ledDimmer.c ****     #endif /* (ledDimmer_UsingFixedFunction) */
 206:Generated_Source\PSoC4/ledDimmer.c **** 
ARM GAS  C:\Users\Muneeb\AppData\Local\Temp\ccEHy26d.s 			page 8


 207:Generated_Source\PSoC4/ledDimmer.c ****     /* Enable the PWM from the control register  */
 208:Generated_Source\PSoC4/ledDimmer.c ****     #if (ledDimmer_UseControl || ledDimmer_UsingFixedFunction)
 209:Generated_Source\PSoC4/ledDimmer.c ****         ledDimmer_CONTROL |= ledDimmer_CTRL_ENABLE;
 194              		.loc 1 209 0
 195 0004 0549     		ldr	r1, .L9
 196 0006 054B     		ldr	r3, .L9
 197 0008 1B78     		ldrb	r3, [r3]
 198 000a DBB2     		uxtb	r3, r3
 199 000c 8022     		movs	r2, #128
 200 000e 5242     		rsbs	r2, r2, #0
 201 0010 1343     		orrs	r3, r2
 202 0012 DBB2     		uxtb	r3, r3
 203 0014 0B70     		strb	r3, [r1]
 210:Generated_Source\PSoC4/ledDimmer.c ****     #endif /* (ledDimmer_UseControl || ledDimmer_UsingFixedFunction) */
 211:Generated_Source\PSoC4/ledDimmer.c **** }
 204              		.loc 1 211 0
 205 0016 C046     		nop
 206 0018 BD46     		mov	sp, r7
 207              		@ sp needed
 208 001a 80BD     		pop	{r7, pc}
 209              	.L10:
 210              		.align	2
 211              	.L9:
 212 001c 73000F40 		.word	1074724979
 213              		.cfi_endproc
 214              	.LFE4:
 215              		.size	ledDimmer_Enable, .-ledDimmer_Enable
 216              		.section	.text.ledDimmer_Stop,"ax",%progbits
 217              		.align	2
 218              		.global	ledDimmer_Stop
 219              		.code	16
 220              		.thumb_func
 221              		.type	ledDimmer_Stop, %function
 222              	ledDimmer_Stop:
 223              	.LFB5:
 212:Generated_Source\PSoC4/ledDimmer.c **** 
 213:Generated_Source\PSoC4/ledDimmer.c **** 
 214:Generated_Source\PSoC4/ledDimmer.c **** /*******************************************************************************
 215:Generated_Source\PSoC4/ledDimmer.c **** * Function Name: ledDimmer_Stop
 216:Generated_Source\PSoC4/ledDimmer.c **** ********************************************************************************
 217:Generated_Source\PSoC4/ledDimmer.c **** *
 218:Generated_Source\PSoC4/ledDimmer.c **** * Summary:
 219:Generated_Source\PSoC4/ledDimmer.c **** *  The stop function halts the PWM, but does not change any modes or disable
 220:Generated_Source\PSoC4/ledDimmer.c **** *  interrupts.
 221:Generated_Source\PSoC4/ledDimmer.c **** *
 222:Generated_Source\PSoC4/ledDimmer.c **** * Parameters:
 223:Generated_Source\PSoC4/ledDimmer.c **** *  None
 224:Generated_Source\PSoC4/ledDimmer.c **** *
 225:Generated_Source\PSoC4/ledDimmer.c **** * Return:
 226:Generated_Source\PSoC4/ledDimmer.c **** *  None
 227:Generated_Source\PSoC4/ledDimmer.c **** *
 228:Generated_Source\PSoC4/ledDimmer.c **** * Side Effects:
 229:Generated_Source\PSoC4/ledDimmer.c **** *  If the Enable mode is set to Hardware only then this function
 230:Generated_Source\PSoC4/ledDimmer.c **** *  has no effect on the operation of the PWM
 231:Generated_Source\PSoC4/ledDimmer.c **** *
 232:Generated_Source\PSoC4/ledDimmer.c **** *******************************************************************************/
 233:Generated_Source\PSoC4/ledDimmer.c **** void ledDimmer_Stop(void) 
ARM GAS  C:\Users\Muneeb\AppData\Local\Temp\ccEHy26d.s 			page 9


 234:Generated_Source\PSoC4/ledDimmer.c **** {
 224              		.loc 1 234 0
 225              		.cfi_startproc
 226              		@ args = 0, pretend = 0, frame = 0
 227              		@ frame_needed = 1, uses_anonymous_args = 0
 228 0000 80B5     		push	{r7, lr}
 229              		.cfi_def_cfa_offset 8
 230              		.cfi_offset 7, -8
 231              		.cfi_offset 14, -4
 232 0002 00AF     		add	r7, sp, #0
 233              		.cfi_def_cfa_register 7
 235:Generated_Source\PSoC4/ledDimmer.c ****     #if (ledDimmer_UseControl || ledDimmer_UsingFixedFunction)
 236:Generated_Source\PSoC4/ledDimmer.c ****         ledDimmer_CONTROL &= ((uint8)(~ledDimmer_CTRL_ENABLE));
 234              		.loc 1 236 0
 235 0004 054A     		ldr	r2, .L12
 236 0006 054B     		ldr	r3, .L12
 237 0008 1B78     		ldrb	r3, [r3]
 238 000a DBB2     		uxtb	r3, r3
 239 000c 7F21     		movs	r1, #127
 240 000e 0B40     		ands	r3, r1
 241 0010 DBB2     		uxtb	r3, r3
 242 0012 1370     		strb	r3, [r2]
 237:Generated_Source\PSoC4/ledDimmer.c ****     #endif /* (ledDimmer_UseControl || ledDimmer_UsingFixedFunction) */
 238:Generated_Source\PSoC4/ledDimmer.c **** 
 239:Generated_Source\PSoC4/ledDimmer.c ****     /* Globally disable the Fixed Function Block chosen */
 240:Generated_Source\PSoC4/ledDimmer.c ****     #if (ledDimmer_UsingFixedFunction)
 241:Generated_Source\PSoC4/ledDimmer.c ****         ledDimmer_GLOBAL_ENABLE &= ((uint8)(~ledDimmer_BLOCK_EN_MASK));
 242:Generated_Source\PSoC4/ledDimmer.c ****         ledDimmer_GLOBAL_STBY_ENABLE &= ((uint8)(~ledDimmer_BLOCK_STBY_EN_MASK));
 243:Generated_Source\PSoC4/ledDimmer.c ****     #endif /* (ledDimmer_UsingFixedFunction) */
 244:Generated_Source\PSoC4/ledDimmer.c **** }
 243              		.loc 1 244 0
 244 0014 C046     		nop
 245 0016 BD46     		mov	sp, r7
 246              		@ sp needed
 247 0018 80BD     		pop	{r7, pc}
 248              	.L13:
 249 001a C046     		.align	2
 250              	.L12:
 251 001c 73000F40 		.word	1074724979
 252              		.cfi_endproc
 253              	.LFE5:
 254              		.size	ledDimmer_Stop, .-ledDimmer_Stop
 255              		.section	.text.ledDimmer_WriteCounter,"ax",%progbits
 256              		.align	2
 257              		.global	ledDimmer_WriteCounter
 258              		.code	16
 259              		.thumb_func
 260              		.type	ledDimmer_WriteCounter, %function
 261              	ledDimmer_WriteCounter:
 262              	.LFB6:
 245:Generated_Source\PSoC4/ledDimmer.c **** 
 246:Generated_Source\PSoC4/ledDimmer.c **** #if (ledDimmer_UseOneCompareMode)
 247:Generated_Source\PSoC4/ledDimmer.c ****     #if (ledDimmer_CompareMode1SW)
 248:Generated_Source\PSoC4/ledDimmer.c **** 
 249:Generated_Source\PSoC4/ledDimmer.c **** 
 250:Generated_Source\PSoC4/ledDimmer.c ****         /*******************************************************************************
 251:Generated_Source\PSoC4/ledDimmer.c ****         * Function Name: ledDimmer_SetCompareMode
ARM GAS  C:\Users\Muneeb\AppData\Local\Temp\ccEHy26d.s 			page 10


 252:Generated_Source\PSoC4/ledDimmer.c ****         ********************************************************************************
 253:Generated_Source\PSoC4/ledDimmer.c ****         *
 254:Generated_Source\PSoC4/ledDimmer.c ****         * Summary:
 255:Generated_Source\PSoC4/ledDimmer.c ****         *  This function writes the Compare Mode for the pwm output when in Dither mode,
 256:Generated_Source\PSoC4/ledDimmer.c ****         *  Center Align Mode or One Output Mode.
 257:Generated_Source\PSoC4/ledDimmer.c ****         *
 258:Generated_Source\PSoC4/ledDimmer.c ****         * Parameters:
 259:Generated_Source\PSoC4/ledDimmer.c ****         *  comparemode:  The new compare mode for the PWM output. Use the compare types
 260:Generated_Source\PSoC4/ledDimmer.c ****         *                defined in the H file as input arguments.
 261:Generated_Source\PSoC4/ledDimmer.c ****         *
 262:Generated_Source\PSoC4/ledDimmer.c ****         * Return:
 263:Generated_Source\PSoC4/ledDimmer.c ****         *  None
 264:Generated_Source\PSoC4/ledDimmer.c ****         *
 265:Generated_Source\PSoC4/ledDimmer.c ****         *******************************************************************************/
 266:Generated_Source\PSoC4/ledDimmer.c ****         void ledDimmer_SetCompareMode(uint8 comparemode) 
 267:Generated_Source\PSoC4/ledDimmer.c ****         {
 268:Generated_Source\PSoC4/ledDimmer.c ****             #if(ledDimmer_UsingFixedFunction)
 269:Generated_Source\PSoC4/ledDimmer.c **** 
 270:Generated_Source\PSoC4/ledDimmer.c ****                 #if(0 != ledDimmer_CTRL_CMPMODE1_SHIFT)
 271:Generated_Source\PSoC4/ledDimmer.c ****                     uint8 comparemodemasked = ((uint8)((uint8)comparemode << ledDimmer_CTRL_CMPMODE
 272:Generated_Source\PSoC4/ledDimmer.c ****                 #else
 273:Generated_Source\PSoC4/ledDimmer.c ****                     uint8 comparemodemasked = comparemode;
 274:Generated_Source\PSoC4/ledDimmer.c ****                 #endif /* (0 != ledDimmer_CTRL_CMPMODE1_SHIFT) */
 275:Generated_Source\PSoC4/ledDimmer.c **** 
 276:Generated_Source\PSoC4/ledDimmer.c ****                 ledDimmer_CONTROL3 &= ((uint8)(~ledDimmer_CTRL_CMPMODE1_MASK)); /*Clear Existing Da
 277:Generated_Source\PSoC4/ledDimmer.c ****                 ledDimmer_CONTROL3 |= comparemodemasked;
 278:Generated_Source\PSoC4/ledDimmer.c **** 
 279:Generated_Source\PSoC4/ledDimmer.c ****             #elif (ledDimmer_UseControl)
 280:Generated_Source\PSoC4/ledDimmer.c **** 
 281:Generated_Source\PSoC4/ledDimmer.c ****                 #if(0 != ledDimmer_CTRL_CMPMODE1_SHIFT)
 282:Generated_Source\PSoC4/ledDimmer.c ****                     uint8 comparemode1masked = ((uint8)((uint8)comparemode << ledDimmer_CTRL_CMPMOD
 283:Generated_Source\PSoC4/ledDimmer.c ****                                                 ledDimmer_CTRL_CMPMODE1_MASK;
 284:Generated_Source\PSoC4/ledDimmer.c ****                 #else
 285:Generated_Source\PSoC4/ledDimmer.c ****                     uint8 comparemode1masked = comparemode & ledDimmer_CTRL_CMPMODE1_MASK;
 286:Generated_Source\PSoC4/ledDimmer.c ****                 #endif /* (0 != ledDimmer_CTRL_CMPMODE1_SHIFT) */
 287:Generated_Source\PSoC4/ledDimmer.c **** 
 288:Generated_Source\PSoC4/ledDimmer.c ****                 #if(0 != ledDimmer_CTRL_CMPMODE2_SHIFT)
 289:Generated_Source\PSoC4/ledDimmer.c ****                     uint8 comparemode2masked = ((uint8)((uint8)comparemode << ledDimmer_CTRL_CMPMOD
 290:Generated_Source\PSoC4/ledDimmer.c ****                                                ledDimmer_CTRL_CMPMODE2_MASK;
 291:Generated_Source\PSoC4/ledDimmer.c ****                 #else
 292:Generated_Source\PSoC4/ledDimmer.c ****                     uint8 comparemode2masked = comparemode & ledDimmer_CTRL_CMPMODE2_MASK;
 293:Generated_Source\PSoC4/ledDimmer.c ****                 #endif /* (0 != ledDimmer_CTRL_CMPMODE2_SHIFT) */
 294:Generated_Source\PSoC4/ledDimmer.c **** 
 295:Generated_Source\PSoC4/ledDimmer.c ****                 /*Clear existing mode */
 296:Generated_Source\PSoC4/ledDimmer.c ****                 ledDimmer_CONTROL &= ((uint8)(~(ledDimmer_CTRL_CMPMODE1_MASK |
 297:Generated_Source\PSoC4/ledDimmer.c ****                                             ledDimmer_CTRL_CMPMODE2_MASK)));
 298:Generated_Source\PSoC4/ledDimmer.c ****                 ledDimmer_CONTROL |= (comparemode1masked | comparemode2masked);
 299:Generated_Source\PSoC4/ledDimmer.c **** 
 300:Generated_Source\PSoC4/ledDimmer.c ****             #else
 301:Generated_Source\PSoC4/ledDimmer.c ****                 uint8 temp = comparemode;
 302:Generated_Source\PSoC4/ledDimmer.c ****             #endif /* (ledDimmer_UsingFixedFunction) */
 303:Generated_Source\PSoC4/ledDimmer.c ****         }
 304:Generated_Source\PSoC4/ledDimmer.c ****     #endif /* ledDimmer_CompareMode1SW */
 305:Generated_Source\PSoC4/ledDimmer.c **** 
 306:Generated_Source\PSoC4/ledDimmer.c **** #else /* UseOneCompareMode */
 307:Generated_Source\PSoC4/ledDimmer.c **** 
 308:Generated_Source\PSoC4/ledDimmer.c ****     #if (ledDimmer_CompareMode1SW)
ARM GAS  C:\Users\Muneeb\AppData\Local\Temp\ccEHy26d.s 			page 11


 309:Generated_Source\PSoC4/ledDimmer.c **** 
 310:Generated_Source\PSoC4/ledDimmer.c **** 
 311:Generated_Source\PSoC4/ledDimmer.c ****         /*******************************************************************************
 312:Generated_Source\PSoC4/ledDimmer.c ****         * Function Name: ledDimmer_SetCompareMode1
 313:Generated_Source\PSoC4/ledDimmer.c ****         ********************************************************************************
 314:Generated_Source\PSoC4/ledDimmer.c ****         *
 315:Generated_Source\PSoC4/ledDimmer.c ****         * Summary:
 316:Generated_Source\PSoC4/ledDimmer.c ****         *  This function writes the Compare Mode for the pwm or pwm1 output
 317:Generated_Source\PSoC4/ledDimmer.c ****         *
 318:Generated_Source\PSoC4/ledDimmer.c ****         * Parameters:
 319:Generated_Source\PSoC4/ledDimmer.c ****         *  comparemode:  The new compare mode for the PWM output. Use the compare types
 320:Generated_Source\PSoC4/ledDimmer.c ****         *                defined in the H file as input arguments.
 321:Generated_Source\PSoC4/ledDimmer.c ****         *
 322:Generated_Source\PSoC4/ledDimmer.c ****         * Return:
 323:Generated_Source\PSoC4/ledDimmer.c ****         *  None
 324:Generated_Source\PSoC4/ledDimmer.c ****         *
 325:Generated_Source\PSoC4/ledDimmer.c ****         *******************************************************************************/
 326:Generated_Source\PSoC4/ledDimmer.c ****         void ledDimmer_SetCompareMode1(uint8 comparemode) 
 327:Generated_Source\PSoC4/ledDimmer.c ****         {
 328:Generated_Source\PSoC4/ledDimmer.c ****             #if(0 != ledDimmer_CTRL_CMPMODE1_SHIFT)
 329:Generated_Source\PSoC4/ledDimmer.c ****                 uint8 comparemodemasked = ((uint8)((uint8)comparemode << ledDimmer_CTRL_CMPMODE1_SH
 330:Generated_Source\PSoC4/ledDimmer.c ****                                            ledDimmer_CTRL_CMPMODE1_MASK;
 331:Generated_Source\PSoC4/ledDimmer.c ****             #else
 332:Generated_Source\PSoC4/ledDimmer.c ****                 uint8 comparemodemasked = comparemode & ledDimmer_CTRL_CMPMODE1_MASK;
 333:Generated_Source\PSoC4/ledDimmer.c ****             #endif /* (0 != ledDimmer_CTRL_CMPMODE1_SHIFT) */
 334:Generated_Source\PSoC4/ledDimmer.c **** 
 335:Generated_Source\PSoC4/ledDimmer.c ****             #if (ledDimmer_UseControl)
 336:Generated_Source\PSoC4/ledDimmer.c ****                 ledDimmer_CONTROL &= ((uint8)(~ledDimmer_CTRL_CMPMODE1_MASK)); /*Clear existing mod
 337:Generated_Source\PSoC4/ledDimmer.c ****                 ledDimmer_CONTROL |= comparemodemasked;
 338:Generated_Source\PSoC4/ledDimmer.c ****             #endif /* (ledDimmer_UseControl) */
 339:Generated_Source\PSoC4/ledDimmer.c ****         }
 340:Generated_Source\PSoC4/ledDimmer.c ****     #endif /* ledDimmer_CompareMode1SW */
 341:Generated_Source\PSoC4/ledDimmer.c **** 
 342:Generated_Source\PSoC4/ledDimmer.c **** #if (ledDimmer_CompareMode2SW)
 343:Generated_Source\PSoC4/ledDimmer.c **** 
 344:Generated_Source\PSoC4/ledDimmer.c **** 
 345:Generated_Source\PSoC4/ledDimmer.c ****     /*******************************************************************************
 346:Generated_Source\PSoC4/ledDimmer.c ****     * Function Name: ledDimmer_SetCompareMode2
 347:Generated_Source\PSoC4/ledDimmer.c ****     ********************************************************************************
 348:Generated_Source\PSoC4/ledDimmer.c ****     *
 349:Generated_Source\PSoC4/ledDimmer.c ****     * Summary:
 350:Generated_Source\PSoC4/ledDimmer.c ****     *  This function writes the Compare Mode for the pwm or pwm2 output
 351:Generated_Source\PSoC4/ledDimmer.c ****     *
 352:Generated_Source\PSoC4/ledDimmer.c ****     * Parameters:
 353:Generated_Source\PSoC4/ledDimmer.c ****     *  comparemode:  The new compare mode for the PWM output. Use the compare types
 354:Generated_Source\PSoC4/ledDimmer.c ****     *                defined in the H file as input arguments.
 355:Generated_Source\PSoC4/ledDimmer.c ****     *
 356:Generated_Source\PSoC4/ledDimmer.c ****     * Return:
 357:Generated_Source\PSoC4/ledDimmer.c ****     *  None
 358:Generated_Source\PSoC4/ledDimmer.c ****     *
 359:Generated_Source\PSoC4/ledDimmer.c ****     *******************************************************************************/
 360:Generated_Source\PSoC4/ledDimmer.c ****     void ledDimmer_SetCompareMode2(uint8 comparemode) 
 361:Generated_Source\PSoC4/ledDimmer.c ****     {
 362:Generated_Source\PSoC4/ledDimmer.c **** 
 363:Generated_Source\PSoC4/ledDimmer.c ****         #if(0 != ledDimmer_CTRL_CMPMODE2_SHIFT)
 364:Generated_Source\PSoC4/ledDimmer.c ****             uint8 comparemodemasked = ((uint8)((uint8)comparemode << ledDimmer_CTRL_CMPMODE2_SHIFT)
 365:Generated_Source\PSoC4/ledDimmer.c ****                                                  ledDimmer_CTRL_CMPMODE2_MASK;
ARM GAS  C:\Users\Muneeb\AppData\Local\Temp\ccEHy26d.s 			page 12


 366:Generated_Source\PSoC4/ledDimmer.c ****         #else
 367:Generated_Source\PSoC4/ledDimmer.c ****             uint8 comparemodemasked = comparemode & ledDimmer_CTRL_CMPMODE2_MASK;
 368:Generated_Source\PSoC4/ledDimmer.c ****         #endif /* (0 != ledDimmer_CTRL_CMPMODE2_SHIFT) */
 369:Generated_Source\PSoC4/ledDimmer.c **** 
 370:Generated_Source\PSoC4/ledDimmer.c ****         #if (ledDimmer_UseControl)
 371:Generated_Source\PSoC4/ledDimmer.c ****             ledDimmer_CONTROL &= ((uint8)(~ledDimmer_CTRL_CMPMODE2_MASK)); /*Clear existing mode */
 372:Generated_Source\PSoC4/ledDimmer.c ****             ledDimmer_CONTROL |= comparemodemasked;
 373:Generated_Source\PSoC4/ledDimmer.c ****         #endif /* (ledDimmer_UseControl) */
 374:Generated_Source\PSoC4/ledDimmer.c ****     }
 375:Generated_Source\PSoC4/ledDimmer.c ****     #endif /*ledDimmer_CompareMode2SW */
 376:Generated_Source\PSoC4/ledDimmer.c **** 
 377:Generated_Source\PSoC4/ledDimmer.c **** #endif /* UseOneCompareMode */
 378:Generated_Source\PSoC4/ledDimmer.c **** 
 379:Generated_Source\PSoC4/ledDimmer.c **** 
 380:Generated_Source\PSoC4/ledDimmer.c **** #if (!ledDimmer_UsingFixedFunction)
 381:Generated_Source\PSoC4/ledDimmer.c **** 
 382:Generated_Source\PSoC4/ledDimmer.c **** 
 383:Generated_Source\PSoC4/ledDimmer.c ****     /*******************************************************************************
 384:Generated_Source\PSoC4/ledDimmer.c ****     * Function Name: ledDimmer_WriteCounter
 385:Generated_Source\PSoC4/ledDimmer.c ****     ********************************************************************************
 386:Generated_Source\PSoC4/ledDimmer.c ****     *
 387:Generated_Source\PSoC4/ledDimmer.c ****     * Summary:
 388:Generated_Source\PSoC4/ledDimmer.c ****     *  Writes a new counter value directly to the counter register. This will be
 389:Generated_Source\PSoC4/ledDimmer.c ****     *  implemented for that currently running period and only that period. This API
 390:Generated_Source\PSoC4/ledDimmer.c ****     *  is valid only for UDB implementation and not available for fixed function
 391:Generated_Source\PSoC4/ledDimmer.c ****     *  PWM implementation.
 392:Generated_Source\PSoC4/ledDimmer.c ****     *
 393:Generated_Source\PSoC4/ledDimmer.c ****     * Parameters:
 394:Generated_Source\PSoC4/ledDimmer.c ****     *  counter:  The period new period counter value.
 395:Generated_Source\PSoC4/ledDimmer.c ****     *
 396:Generated_Source\PSoC4/ledDimmer.c ****     * Return:
 397:Generated_Source\PSoC4/ledDimmer.c ****     *  None
 398:Generated_Source\PSoC4/ledDimmer.c ****     *
 399:Generated_Source\PSoC4/ledDimmer.c ****     * Side Effects:
 400:Generated_Source\PSoC4/ledDimmer.c ****     *  The PWM Period will be reloaded when a counter value will be a zero
 401:Generated_Source\PSoC4/ledDimmer.c ****     *
 402:Generated_Source\PSoC4/ledDimmer.c ****     *******************************************************************************/
 403:Generated_Source\PSoC4/ledDimmer.c ****     void ledDimmer_WriteCounter(uint16 counter) \
 404:Generated_Source\PSoC4/ledDimmer.c ****                                        
 405:Generated_Source\PSoC4/ledDimmer.c ****     {
 263              		.loc 1 405 0
 264              		.cfi_startproc
 265              		@ args = 0, pretend = 0, frame = 8
 266              		@ frame_needed = 1, uses_anonymous_args = 0
 267 0000 80B5     		push	{r7, lr}
 268              		.cfi_def_cfa_offset 8
 269              		.cfi_offset 7, -8
 270              		.cfi_offset 14, -4
 271 0002 82B0     		sub	sp, sp, #8
 272              		.cfi_def_cfa_offset 16
 273 0004 00AF     		add	r7, sp, #0
 274              		.cfi_def_cfa_register 7
 275 0006 0200     		movs	r2, r0
 276 0008 BB1D     		adds	r3, r7, #6
 277 000a 1A80     		strh	r2, [r3]
 406:Generated_Source\PSoC4/ledDimmer.c ****         CY_SET_REG16(ledDimmer_COUNTER_LSB_PTR, counter);
 278              		.loc 1 406 0
ARM GAS  C:\Users\Muneeb\AppData\Local\Temp\ccEHy26d.s 			page 13


 279 000c 034A     		ldr	r2, .L15
 280 000e BB1D     		adds	r3, r7, #6
 281 0010 1B88     		ldrh	r3, [r3]
 282 0012 1380     		strh	r3, [r2]
 407:Generated_Source\PSoC4/ledDimmer.c ****     }
 283              		.loc 1 407 0
 284 0014 C046     		nop
 285 0016 BD46     		mov	sp, r7
 286 0018 02B0     		add	sp, sp, #8
 287              		@ sp needed
 288 001a 80BD     		pop	{r7, pc}
 289              	.L16:
 290              		.align	2
 291              	.L15:
 292 001c 04100F40 		.word	1074728964
 293              		.cfi_endproc
 294              	.LFE6:
 295              		.size	ledDimmer_WriteCounter, .-ledDimmer_WriteCounter
 296              		.section	.text.ledDimmer_ReadCounter,"ax",%progbits
 297              		.align	2
 298              		.global	ledDimmer_ReadCounter
 299              		.code	16
 300              		.thumb_func
 301              		.type	ledDimmer_ReadCounter, %function
 302              	ledDimmer_ReadCounter:
 303              	.LFB7:
 408:Generated_Source\PSoC4/ledDimmer.c **** 
 409:Generated_Source\PSoC4/ledDimmer.c **** 
 410:Generated_Source\PSoC4/ledDimmer.c ****     /*******************************************************************************
 411:Generated_Source\PSoC4/ledDimmer.c ****     * Function Name: ledDimmer_ReadCounter
 412:Generated_Source\PSoC4/ledDimmer.c ****     ********************************************************************************
 413:Generated_Source\PSoC4/ledDimmer.c ****     *
 414:Generated_Source\PSoC4/ledDimmer.c ****     * Summary:
 415:Generated_Source\PSoC4/ledDimmer.c ****     *  This function returns the current value of the counter.  It doesn't matter
 416:Generated_Source\PSoC4/ledDimmer.c ****     *  if the counter is enabled or running.
 417:Generated_Source\PSoC4/ledDimmer.c ****     *
 418:Generated_Source\PSoC4/ledDimmer.c ****     * Parameters:
 419:Generated_Source\PSoC4/ledDimmer.c ****     *  None
 420:Generated_Source\PSoC4/ledDimmer.c ****     *
 421:Generated_Source\PSoC4/ledDimmer.c ****     * Return:
 422:Generated_Source\PSoC4/ledDimmer.c ****     *  The current value of the counter.
 423:Generated_Source\PSoC4/ledDimmer.c ****     *
 424:Generated_Source\PSoC4/ledDimmer.c ****     *******************************************************************************/
 425:Generated_Source\PSoC4/ledDimmer.c ****     uint16 ledDimmer_ReadCounter(void) 
 426:Generated_Source\PSoC4/ledDimmer.c ****     {
 304              		.loc 1 426 0
 305              		.cfi_startproc
 306              		@ args = 0, pretend = 0, frame = 0
 307              		@ frame_needed = 1, uses_anonymous_args = 0
 308 0000 80B5     		push	{r7, lr}
 309              		.cfi_def_cfa_offset 8
 310              		.cfi_offset 7, -8
 311              		.cfi_offset 14, -4
 312 0002 00AF     		add	r7, sp, #0
 313              		.cfi_def_cfa_register 7
 427:Generated_Source\PSoC4/ledDimmer.c ****         /* Force capture by reading Accumulator */
 428:Generated_Source\PSoC4/ledDimmer.c ****         /* Must first do a software capture to be able to read the counter */
ARM GAS  C:\Users\Muneeb\AppData\Local\Temp\ccEHy26d.s 			page 14


 429:Generated_Source\PSoC4/ledDimmer.c ****         /* It is up to the user code to make sure there isn't already captured data in the FIFO */
 430:Generated_Source\PSoC4/ledDimmer.c ****           (void)CY_GET_REG8(ledDimmer_COUNTERCAP_LSB_PTR_8BIT);
 314              		.loc 1 430 0
 315 0004 034B     		ldr	r3, .L19
 316 0006 1B78     		ldrb	r3, [r3]
 431:Generated_Source\PSoC4/ledDimmer.c **** 
 432:Generated_Source\PSoC4/ledDimmer.c ****         /* Read the data from the FIFO */
 433:Generated_Source\PSoC4/ledDimmer.c ****         return (CY_GET_REG16(ledDimmer_CAPTURE_LSB_PTR));
 317              		.loc 1 433 0
 318 0008 034B     		ldr	r3, .L19+4
 319 000a 1B88     		ldrh	r3, [r3]
 320 000c 9BB2     		uxth	r3, r3
 434:Generated_Source\PSoC4/ledDimmer.c ****     }
 321              		.loc 1 434 0
 322 000e 1800     		movs	r0, r3
 323 0010 BD46     		mov	sp, r7
 324              		@ sp needed
 325 0012 80BD     		pop	{r7, pc}
 326              	.L20:
 327              		.align	2
 328              	.L19:
 329 0014 12000F40 		.word	1074724882
 330 0018 A4100F40 		.word	1074729124
 331              		.cfi_endproc
 332              	.LFE7:
 333              		.size	ledDimmer_ReadCounter, .-ledDimmer_ReadCounter
 334              		.section	.text.ledDimmer_ClearFIFO,"ax",%progbits
 335              		.align	2
 336              		.global	ledDimmer_ClearFIFO
 337              		.code	16
 338              		.thumb_func
 339              		.type	ledDimmer_ClearFIFO, %function
 340              	ledDimmer_ClearFIFO:
 341              	.LFB8:
 435:Generated_Source\PSoC4/ledDimmer.c **** 
 436:Generated_Source\PSoC4/ledDimmer.c ****     #if (ledDimmer_UseStatus)
 437:Generated_Source\PSoC4/ledDimmer.c **** 
 438:Generated_Source\PSoC4/ledDimmer.c **** 
 439:Generated_Source\PSoC4/ledDimmer.c ****         /*******************************************************************************
 440:Generated_Source\PSoC4/ledDimmer.c ****         * Function Name: ledDimmer_ClearFIFO
 441:Generated_Source\PSoC4/ledDimmer.c ****         ********************************************************************************
 442:Generated_Source\PSoC4/ledDimmer.c ****         *
 443:Generated_Source\PSoC4/ledDimmer.c ****         * Summary:
 444:Generated_Source\PSoC4/ledDimmer.c ****         *  This function clears all capture data from the capture FIFO
 445:Generated_Source\PSoC4/ledDimmer.c ****         *
 446:Generated_Source\PSoC4/ledDimmer.c ****         * Parameters:
 447:Generated_Source\PSoC4/ledDimmer.c ****         *  None
 448:Generated_Source\PSoC4/ledDimmer.c ****         *
 449:Generated_Source\PSoC4/ledDimmer.c ****         * Return:
 450:Generated_Source\PSoC4/ledDimmer.c ****         *  None
 451:Generated_Source\PSoC4/ledDimmer.c ****         *
 452:Generated_Source\PSoC4/ledDimmer.c ****         *******************************************************************************/
 453:Generated_Source\PSoC4/ledDimmer.c ****         void ledDimmer_ClearFIFO(void) 
 454:Generated_Source\PSoC4/ledDimmer.c ****         {
 342              		.loc 1 454 0
 343              		.cfi_startproc
 344              		@ args = 0, pretend = 0, frame = 0
ARM GAS  C:\Users\Muneeb\AppData\Local\Temp\ccEHy26d.s 			page 15


 345              		@ frame_needed = 1, uses_anonymous_args = 0
 346 0000 80B5     		push	{r7, lr}
 347              		.cfi_def_cfa_offset 8
 348              		.cfi_offset 7, -8
 349              		.cfi_offset 14, -4
 350 0002 00AF     		add	r7, sp, #0
 351              		.cfi_def_cfa_register 7
 455:Generated_Source\PSoC4/ledDimmer.c ****             while(0u != (ledDimmer_ReadStatusRegister() & ledDimmer_STATUS_FIFONEMPTY))
 352              		.loc 1 455 0
 353 0004 01E0     		b	.L22
 354              	.L23:
 456:Generated_Source\PSoC4/ledDimmer.c ****             {
 457:Generated_Source\PSoC4/ledDimmer.c ****                 (void)ledDimmer_ReadCapture();
 355              		.loc 1 457 0
 356 0006 FFF7FEFF 		bl	ledDimmer_ReadCapture
 357              	.L22:
 455:Generated_Source\PSoC4/ledDimmer.c ****             while(0u != (ledDimmer_ReadStatusRegister() & ledDimmer_STATUS_FIFONEMPTY))
 358              		.loc 1 455 0
 359 000a FFF7FEFF 		bl	ledDimmer_ReadStatusRegister
 360 000e 0300     		movs	r3, r0
 361 0010 1A00     		movs	r2, r3
 362 0012 1023     		movs	r3, #16
 363 0014 1340     		ands	r3, r2
 364 0016 F6D1     		bne	.L23
 458:Generated_Source\PSoC4/ledDimmer.c ****             }
 459:Generated_Source\PSoC4/ledDimmer.c ****         }
 365              		.loc 1 459 0
 366 0018 C046     		nop
 367 001a BD46     		mov	sp, r7
 368              		@ sp needed
 369 001c 80BD     		pop	{r7, pc}
 370              		.cfi_endproc
 371              	.LFE8:
 372              		.size	ledDimmer_ClearFIFO, .-ledDimmer_ClearFIFO
 373 001e C046     		.section	.text.ledDimmer_WritePeriod,"ax",%progbits
 374              		.align	2
 375              		.global	ledDimmer_WritePeriod
 376              		.code	16
 377              		.thumb_func
 378              		.type	ledDimmer_WritePeriod, %function
 379              	ledDimmer_WritePeriod:
 380              	.LFB9:
 460:Generated_Source\PSoC4/ledDimmer.c **** 
 461:Generated_Source\PSoC4/ledDimmer.c ****     #endif /* ledDimmer_UseStatus */
 462:Generated_Source\PSoC4/ledDimmer.c **** 
 463:Generated_Source\PSoC4/ledDimmer.c **** #endif /* !ledDimmer_UsingFixedFunction */
 464:Generated_Source\PSoC4/ledDimmer.c **** 
 465:Generated_Source\PSoC4/ledDimmer.c **** 
 466:Generated_Source\PSoC4/ledDimmer.c **** /*******************************************************************************
 467:Generated_Source\PSoC4/ledDimmer.c **** * Function Name: ledDimmer_WritePeriod
 468:Generated_Source\PSoC4/ledDimmer.c **** ********************************************************************************
 469:Generated_Source\PSoC4/ledDimmer.c **** *
 470:Generated_Source\PSoC4/ledDimmer.c **** * Summary:
 471:Generated_Source\PSoC4/ledDimmer.c **** *  This function is used to change the period of the counter.  The new period
 472:Generated_Source\PSoC4/ledDimmer.c **** *  will be loaded the next time terminal count is detected.
 473:Generated_Source\PSoC4/ledDimmer.c **** *
 474:Generated_Source\PSoC4/ledDimmer.c **** * Parameters:
ARM GAS  C:\Users\Muneeb\AppData\Local\Temp\ccEHy26d.s 			page 16


 475:Generated_Source\PSoC4/ledDimmer.c **** *  period:  Period value. May be between 1 and (2^Resolution)-1.  A value of 0
 476:Generated_Source\PSoC4/ledDimmer.c **** *           will result in the counter remaining at zero.
 477:Generated_Source\PSoC4/ledDimmer.c **** *
 478:Generated_Source\PSoC4/ledDimmer.c **** * Return:
 479:Generated_Source\PSoC4/ledDimmer.c **** *  None
 480:Generated_Source\PSoC4/ledDimmer.c **** *
 481:Generated_Source\PSoC4/ledDimmer.c **** *******************************************************************************/
 482:Generated_Source\PSoC4/ledDimmer.c **** void ledDimmer_WritePeriod(uint16 period) 
 483:Generated_Source\PSoC4/ledDimmer.c **** {
 381              		.loc 1 483 0
 382              		.cfi_startproc
 383              		@ args = 0, pretend = 0, frame = 8
 384              		@ frame_needed = 1, uses_anonymous_args = 0
 385 0000 80B5     		push	{r7, lr}
 386              		.cfi_def_cfa_offset 8
 387              		.cfi_offset 7, -8
 388              		.cfi_offset 14, -4
 389 0002 82B0     		sub	sp, sp, #8
 390              		.cfi_def_cfa_offset 16
 391 0004 00AF     		add	r7, sp, #0
 392              		.cfi_def_cfa_register 7
 393 0006 0200     		movs	r2, r0
 394 0008 BB1D     		adds	r3, r7, #6
 395 000a 1A80     		strh	r2, [r3]
 484:Generated_Source\PSoC4/ledDimmer.c ****     #if(ledDimmer_UsingFixedFunction)
 485:Generated_Source\PSoC4/ledDimmer.c ****         CY_SET_REG16(ledDimmer_PERIOD_LSB_PTR, (uint16)period);
 486:Generated_Source\PSoC4/ledDimmer.c ****     #else
 487:Generated_Source\PSoC4/ledDimmer.c ****         CY_SET_REG16(ledDimmer_PERIOD_LSB_PTR, period);
 396              		.loc 1 487 0
 397 000c 034A     		ldr	r2, .L25
 398 000e BB1D     		adds	r3, r7, #6
 399 0010 1B88     		ldrh	r3, [r3]
 400 0012 1380     		strh	r3, [r2]
 488:Generated_Source\PSoC4/ledDimmer.c ****     #endif /* (ledDimmer_UsingFixedFunction) */
 489:Generated_Source\PSoC4/ledDimmer.c **** }
 401              		.loc 1 489 0
 402 0014 C046     		nop
 403 0016 BD46     		mov	sp, r7
 404 0018 02B0     		add	sp, sp, #8
 405              		@ sp needed
 406 001a 80BD     		pop	{r7, pc}
 407              	.L26:
 408              		.align	2
 409              	.L25:
 410 001c 84100F40 		.word	1074729092
 411              		.cfi_endproc
 412              	.LFE9:
 413              		.size	ledDimmer_WritePeriod, .-ledDimmer_WritePeriod
 414              		.section	.text.ledDimmer_WriteCompare,"ax",%progbits
 415              		.align	2
 416              		.global	ledDimmer_WriteCompare
 417              		.code	16
 418              		.thumb_func
 419              		.type	ledDimmer_WriteCompare, %function
 420              	ledDimmer_WriteCompare:
 421              	.LFB10:
 490:Generated_Source\PSoC4/ledDimmer.c **** 
ARM GAS  C:\Users\Muneeb\AppData\Local\Temp\ccEHy26d.s 			page 17


 491:Generated_Source\PSoC4/ledDimmer.c **** #if (ledDimmer_UseOneCompareMode)
 492:Generated_Source\PSoC4/ledDimmer.c **** 
 493:Generated_Source\PSoC4/ledDimmer.c **** 
 494:Generated_Source\PSoC4/ledDimmer.c ****     /*******************************************************************************
 495:Generated_Source\PSoC4/ledDimmer.c ****     * Function Name: ledDimmer_WriteCompare
 496:Generated_Source\PSoC4/ledDimmer.c ****     ********************************************************************************
 497:Generated_Source\PSoC4/ledDimmer.c ****     *
 498:Generated_Source\PSoC4/ledDimmer.c ****     * Summary:
 499:Generated_Source\PSoC4/ledDimmer.c ****     *  This funtion is used to change the compare1 value when the PWM is in Dither
 500:Generated_Source\PSoC4/ledDimmer.c ****     *  mode. The compare output will reflect the new value on the next UDB clock.
 501:Generated_Source\PSoC4/ledDimmer.c ****     *  The compare output will be driven high when the present counter value is
 502:Generated_Source\PSoC4/ledDimmer.c ****     *  compared to the compare value based on the compare mode defined in
 503:Generated_Source\PSoC4/ledDimmer.c ****     *  Dither Mode.
 504:Generated_Source\PSoC4/ledDimmer.c ****     *
 505:Generated_Source\PSoC4/ledDimmer.c ****     * Parameters:
 506:Generated_Source\PSoC4/ledDimmer.c ****     *  compare:  New compare value.
 507:Generated_Source\PSoC4/ledDimmer.c ****     *
 508:Generated_Source\PSoC4/ledDimmer.c ****     * Return:
 509:Generated_Source\PSoC4/ledDimmer.c ****     *  None
 510:Generated_Source\PSoC4/ledDimmer.c ****     *
 511:Generated_Source\PSoC4/ledDimmer.c ****     * Side Effects:
 512:Generated_Source\PSoC4/ledDimmer.c ****     *  This function is only available if the PWM mode parameter is set to
 513:Generated_Source\PSoC4/ledDimmer.c ****     *  Dither Mode, Center Aligned Mode or One Output Mode
 514:Generated_Source\PSoC4/ledDimmer.c ****     *
 515:Generated_Source\PSoC4/ledDimmer.c ****     *******************************************************************************/
 516:Generated_Source\PSoC4/ledDimmer.c ****     void ledDimmer_WriteCompare(uint16 compare) \
 517:Generated_Source\PSoC4/ledDimmer.c ****                                        
 518:Generated_Source\PSoC4/ledDimmer.c ****     {
 422              		.loc 1 518 0
 423              		.cfi_startproc
 424              		@ args = 0, pretend = 0, frame = 8
 425              		@ frame_needed = 1, uses_anonymous_args = 0
 426 0000 80B5     		push	{r7, lr}
 427              		.cfi_def_cfa_offset 8
 428              		.cfi_offset 7, -8
 429              		.cfi_offset 14, -4
 430 0002 82B0     		sub	sp, sp, #8
 431              		.cfi_def_cfa_offset 16
 432 0004 00AF     		add	r7, sp, #0
 433              		.cfi_def_cfa_register 7
 434 0006 0200     		movs	r2, r0
 435 0008 BB1D     		adds	r3, r7, #6
 436 000a 1A80     		strh	r2, [r3]
 519:Generated_Source\PSoC4/ledDimmer.c ****         #if(ledDimmer_UsingFixedFunction)
 520:Generated_Source\PSoC4/ledDimmer.c ****             CY_SET_REG16(ledDimmer_COMPARE1_LSB_PTR, (uint16)compare);
 521:Generated_Source\PSoC4/ledDimmer.c ****         #else
 522:Generated_Source\PSoC4/ledDimmer.c ****             CY_SET_REG16(ledDimmer_COMPARE1_LSB_PTR, compare);
 437              		.loc 1 522 0
 438 000c 034A     		ldr	r2, .L28
 439 000e BB1D     		adds	r3, r7, #6
 440 0010 1B88     		ldrh	r3, [r3]
 441 0012 1380     		strh	r3, [r2]
 523:Generated_Source\PSoC4/ledDimmer.c ****         #endif /* (ledDimmer_UsingFixedFunction) */
 524:Generated_Source\PSoC4/ledDimmer.c **** 
 525:Generated_Source\PSoC4/ledDimmer.c ****         #if (ledDimmer_PWMMode == ledDimmer__B_PWM__DITHER)
 526:Generated_Source\PSoC4/ledDimmer.c ****             #if(ledDimmer_UsingFixedFunction)
 527:Generated_Source\PSoC4/ledDimmer.c ****                 CY_SET_REG16(ledDimmer_COMPARE2_LSB_PTR, (uint16)(compare + 1u));
ARM GAS  C:\Users\Muneeb\AppData\Local\Temp\ccEHy26d.s 			page 18


 528:Generated_Source\PSoC4/ledDimmer.c ****             #else
 529:Generated_Source\PSoC4/ledDimmer.c ****                 CY_SET_REG16(ledDimmer_COMPARE2_LSB_PTR, (compare + 1u));
 530:Generated_Source\PSoC4/ledDimmer.c ****             #endif /* (ledDimmer_UsingFixedFunction) */
 531:Generated_Source\PSoC4/ledDimmer.c ****         #endif /* (ledDimmer_PWMMode == ledDimmer__B_PWM__DITHER) */
 532:Generated_Source\PSoC4/ledDimmer.c ****     }
 442              		.loc 1 532 0
 443 0014 C046     		nop
 444 0016 BD46     		mov	sp, r7
 445 0018 02B0     		add	sp, sp, #8
 446              		@ sp needed
 447 001a 80BD     		pop	{r7, pc}
 448              	.L29:
 449              		.align	2
 450              	.L28:
 451 001c 44100F40 		.word	1074729028
 452              		.cfi_endproc
 453              	.LFE10:
 454              		.size	ledDimmer_WriteCompare, .-ledDimmer_WriteCompare
 455              		.section	.text.ledDimmer_SetInterruptMode,"ax",%progbits
 456              		.align	2
 457              		.global	ledDimmer_SetInterruptMode
 458              		.code	16
 459              		.thumb_func
 460              		.type	ledDimmer_SetInterruptMode, %function
 461              	ledDimmer_SetInterruptMode:
 462              	.LFB11:
 533:Generated_Source\PSoC4/ledDimmer.c **** 
 534:Generated_Source\PSoC4/ledDimmer.c **** 
 535:Generated_Source\PSoC4/ledDimmer.c **** #else
 536:Generated_Source\PSoC4/ledDimmer.c **** 
 537:Generated_Source\PSoC4/ledDimmer.c **** 
 538:Generated_Source\PSoC4/ledDimmer.c ****     /*******************************************************************************
 539:Generated_Source\PSoC4/ledDimmer.c ****     * Function Name: ledDimmer_WriteCompare1
 540:Generated_Source\PSoC4/ledDimmer.c ****     ********************************************************************************
 541:Generated_Source\PSoC4/ledDimmer.c ****     *
 542:Generated_Source\PSoC4/ledDimmer.c ****     * Summary:
 543:Generated_Source\PSoC4/ledDimmer.c ****     *  This funtion is used to change the compare1 value.  The compare output will
 544:Generated_Source\PSoC4/ledDimmer.c ****     *  reflect the new value on the next UDB clock.  The compare output will be
 545:Generated_Source\PSoC4/ledDimmer.c ****     *  driven high when the present counter value is less than or less than or
 546:Generated_Source\PSoC4/ledDimmer.c ****     *  equal to the compare register, depending on the mode.
 547:Generated_Source\PSoC4/ledDimmer.c ****     *
 548:Generated_Source\PSoC4/ledDimmer.c ****     * Parameters:
 549:Generated_Source\PSoC4/ledDimmer.c ****     *  compare:  New compare value.
 550:Generated_Source\PSoC4/ledDimmer.c ****     *
 551:Generated_Source\PSoC4/ledDimmer.c ****     * Return:
 552:Generated_Source\PSoC4/ledDimmer.c ****     *  None
 553:Generated_Source\PSoC4/ledDimmer.c ****     *
 554:Generated_Source\PSoC4/ledDimmer.c ****     *******************************************************************************/
 555:Generated_Source\PSoC4/ledDimmer.c ****     void ledDimmer_WriteCompare1(uint16 compare) \
 556:Generated_Source\PSoC4/ledDimmer.c ****                                         
 557:Generated_Source\PSoC4/ledDimmer.c ****     {
 558:Generated_Source\PSoC4/ledDimmer.c ****         #if(ledDimmer_UsingFixedFunction)
 559:Generated_Source\PSoC4/ledDimmer.c ****             CY_SET_REG16(ledDimmer_COMPARE1_LSB_PTR, (uint16)compare);
 560:Generated_Source\PSoC4/ledDimmer.c ****         #else
 561:Generated_Source\PSoC4/ledDimmer.c ****             CY_SET_REG16(ledDimmer_COMPARE1_LSB_PTR, compare);
 562:Generated_Source\PSoC4/ledDimmer.c ****         #endif /* (ledDimmer_UsingFixedFunction) */
 563:Generated_Source\PSoC4/ledDimmer.c ****     }
ARM GAS  C:\Users\Muneeb\AppData\Local\Temp\ccEHy26d.s 			page 19


 564:Generated_Source\PSoC4/ledDimmer.c **** 
 565:Generated_Source\PSoC4/ledDimmer.c **** 
 566:Generated_Source\PSoC4/ledDimmer.c ****     /*******************************************************************************
 567:Generated_Source\PSoC4/ledDimmer.c ****     * Function Name: ledDimmer_WriteCompare2
 568:Generated_Source\PSoC4/ledDimmer.c ****     ********************************************************************************
 569:Generated_Source\PSoC4/ledDimmer.c ****     *
 570:Generated_Source\PSoC4/ledDimmer.c ****     * Summary:
 571:Generated_Source\PSoC4/ledDimmer.c ****     *  This funtion is used to change the compare value, for compare1 output.
 572:Generated_Source\PSoC4/ledDimmer.c ****     *  The compare output will reflect the new value on the next UDB clock.
 573:Generated_Source\PSoC4/ledDimmer.c ****     *  The compare output will be driven high when the present counter value is
 574:Generated_Source\PSoC4/ledDimmer.c ****     *  less than or less than or equal to the compare register, depending on the
 575:Generated_Source\PSoC4/ledDimmer.c ****     *  mode.
 576:Generated_Source\PSoC4/ledDimmer.c ****     *
 577:Generated_Source\PSoC4/ledDimmer.c ****     * Parameters:
 578:Generated_Source\PSoC4/ledDimmer.c ****     *  compare:  New compare value.
 579:Generated_Source\PSoC4/ledDimmer.c ****     *
 580:Generated_Source\PSoC4/ledDimmer.c ****     * Return:
 581:Generated_Source\PSoC4/ledDimmer.c ****     *  None
 582:Generated_Source\PSoC4/ledDimmer.c ****     *
 583:Generated_Source\PSoC4/ledDimmer.c ****     *******************************************************************************/
 584:Generated_Source\PSoC4/ledDimmer.c ****     void ledDimmer_WriteCompare2(uint16 compare) \
 585:Generated_Source\PSoC4/ledDimmer.c ****                                         
 586:Generated_Source\PSoC4/ledDimmer.c ****     {
 587:Generated_Source\PSoC4/ledDimmer.c ****         #if(ledDimmer_UsingFixedFunction)
 588:Generated_Source\PSoC4/ledDimmer.c ****             CY_SET_REG16(ledDimmer_COMPARE2_LSB_PTR, compare);
 589:Generated_Source\PSoC4/ledDimmer.c ****         #else
 590:Generated_Source\PSoC4/ledDimmer.c ****             CY_SET_REG16(ledDimmer_COMPARE2_LSB_PTR, compare);
 591:Generated_Source\PSoC4/ledDimmer.c ****         #endif /* (ledDimmer_UsingFixedFunction) */
 592:Generated_Source\PSoC4/ledDimmer.c ****     }
 593:Generated_Source\PSoC4/ledDimmer.c **** #endif /* UseOneCompareMode */
 594:Generated_Source\PSoC4/ledDimmer.c **** 
 595:Generated_Source\PSoC4/ledDimmer.c **** #if (ledDimmer_DeadBandUsed)
 596:Generated_Source\PSoC4/ledDimmer.c **** 
 597:Generated_Source\PSoC4/ledDimmer.c **** 
 598:Generated_Source\PSoC4/ledDimmer.c ****     /*******************************************************************************
 599:Generated_Source\PSoC4/ledDimmer.c ****     * Function Name: ledDimmer_WriteDeadTime
 600:Generated_Source\PSoC4/ledDimmer.c ****     ********************************************************************************
 601:Generated_Source\PSoC4/ledDimmer.c ****     *
 602:Generated_Source\PSoC4/ledDimmer.c ****     * Summary:
 603:Generated_Source\PSoC4/ledDimmer.c ****     *  This function writes the dead-band counts to the corresponding register
 604:Generated_Source\PSoC4/ledDimmer.c ****     *
 605:Generated_Source\PSoC4/ledDimmer.c ****     * Parameters:
 606:Generated_Source\PSoC4/ledDimmer.c ****     *  deadtime:  Number of counts for dead time
 607:Generated_Source\PSoC4/ledDimmer.c ****     *
 608:Generated_Source\PSoC4/ledDimmer.c ****     * Return:
 609:Generated_Source\PSoC4/ledDimmer.c ****     *  None
 610:Generated_Source\PSoC4/ledDimmer.c ****     *
 611:Generated_Source\PSoC4/ledDimmer.c ****     *******************************************************************************/
 612:Generated_Source\PSoC4/ledDimmer.c ****     void ledDimmer_WriteDeadTime(uint8 deadtime) 
 613:Generated_Source\PSoC4/ledDimmer.c ****     {
 614:Generated_Source\PSoC4/ledDimmer.c ****         /* If using the Dead Band 1-255 mode then just write the register */
 615:Generated_Source\PSoC4/ledDimmer.c ****         #if(!ledDimmer_DeadBand2_4)
 616:Generated_Source\PSoC4/ledDimmer.c ****             CY_SET_REG8(ledDimmer_DEADBAND_COUNT_PTR, deadtime);
 617:Generated_Source\PSoC4/ledDimmer.c ****         #else
 618:Generated_Source\PSoC4/ledDimmer.c ****             /* Otherwise the data has to be masked and offset */
 619:Generated_Source\PSoC4/ledDimmer.c ****             /* Clear existing data */
 620:Generated_Source\PSoC4/ledDimmer.c ****             ledDimmer_DEADBAND_COUNT &= ((uint8)(~ledDimmer_DEADBAND_COUNT_MASK));
ARM GAS  C:\Users\Muneeb\AppData\Local\Temp\ccEHy26d.s 			page 20


 621:Generated_Source\PSoC4/ledDimmer.c **** 
 622:Generated_Source\PSoC4/ledDimmer.c ****             /* Set new dead time */
 623:Generated_Source\PSoC4/ledDimmer.c ****             #if(ledDimmer_DEADBAND_COUNT_SHIFT)
 624:Generated_Source\PSoC4/ledDimmer.c ****                 ledDimmer_DEADBAND_COUNT |= ((uint8)((uint8)deadtime << ledDimmer_DEADBAND_COUNT_SH
 625:Generated_Source\PSoC4/ledDimmer.c ****                                                     ledDimmer_DEADBAND_COUNT_MASK;
 626:Generated_Source\PSoC4/ledDimmer.c ****             #else
 627:Generated_Source\PSoC4/ledDimmer.c ****                 ledDimmer_DEADBAND_COUNT |= deadtime & ledDimmer_DEADBAND_COUNT_MASK;
 628:Generated_Source\PSoC4/ledDimmer.c ****             #endif /* (ledDimmer_DEADBAND_COUNT_SHIFT) */
 629:Generated_Source\PSoC4/ledDimmer.c **** 
 630:Generated_Source\PSoC4/ledDimmer.c ****         #endif /* (!ledDimmer_DeadBand2_4) */
 631:Generated_Source\PSoC4/ledDimmer.c ****     }
 632:Generated_Source\PSoC4/ledDimmer.c **** 
 633:Generated_Source\PSoC4/ledDimmer.c **** 
 634:Generated_Source\PSoC4/ledDimmer.c ****     /*******************************************************************************
 635:Generated_Source\PSoC4/ledDimmer.c ****     * Function Name: ledDimmer_ReadDeadTime
 636:Generated_Source\PSoC4/ledDimmer.c ****     ********************************************************************************
 637:Generated_Source\PSoC4/ledDimmer.c ****     *
 638:Generated_Source\PSoC4/ledDimmer.c ****     * Summary:
 639:Generated_Source\PSoC4/ledDimmer.c ****     *  This function reads the dead-band counts from the corresponding register
 640:Generated_Source\PSoC4/ledDimmer.c ****     *
 641:Generated_Source\PSoC4/ledDimmer.c ****     * Parameters:
 642:Generated_Source\PSoC4/ledDimmer.c ****     *  None
 643:Generated_Source\PSoC4/ledDimmer.c ****     *
 644:Generated_Source\PSoC4/ledDimmer.c ****     * Return:
 645:Generated_Source\PSoC4/ledDimmer.c ****     *  Dead Band Counts
 646:Generated_Source\PSoC4/ledDimmer.c ****     *
 647:Generated_Source\PSoC4/ledDimmer.c ****     *******************************************************************************/
 648:Generated_Source\PSoC4/ledDimmer.c ****     uint8 ledDimmer_ReadDeadTime(void) 
 649:Generated_Source\PSoC4/ledDimmer.c ****     {
 650:Generated_Source\PSoC4/ledDimmer.c ****         /* If using the Dead Band 1-255 mode then just read the register */
 651:Generated_Source\PSoC4/ledDimmer.c ****         #if(!ledDimmer_DeadBand2_4)
 652:Generated_Source\PSoC4/ledDimmer.c ****             return (CY_GET_REG8(ledDimmer_DEADBAND_COUNT_PTR));
 653:Generated_Source\PSoC4/ledDimmer.c ****         #else
 654:Generated_Source\PSoC4/ledDimmer.c **** 
 655:Generated_Source\PSoC4/ledDimmer.c ****             /* Otherwise the data has to be masked and offset */
 656:Generated_Source\PSoC4/ledDimmer.c ****             #if(ledDimmer_DEADBAND_COUNT_SHIFT)
 657:Generated_Source\PSoC4/ledDimmer.c ****                 return ((uint8)(((uint8)(ledDimmer_DEADBAND_COUNT & ledDimmer_DEADBAND_COUNT_MASK))
 658:Generated_Source\PSoC4/ledDimmer.c ****                                                                            ledDimmer_DEADBAND_COUNT
 659:Generated_Source\PSoC4/ledDimmer.c ****             #else
 660:Generated_Source\PSoC4/ledDimmer.c ****                 return (ledDimmer_DEADBAND_COUNT & ledDimmer_DEADBAND_COUNT_MASK);
 661:Generated_Source\PSoC4/ledDimmer.c ****             #endif /* (ledDimmer_DEADBAND_COUNT_SHIFT) */
 662:Generated_Source\PSoC4/ledDimmer.c ****         #endif /* (!ledDimmer_DeadBand2_4) */
 663:Generated_Source\PSoC4/ledDimmer.c ****     }
 664:Generated_Source\PSoC4/ledDimmer.c **** #endif /* DeadBandUsed */
 665:Generated_Source\PSoC4/ledDimmer.c **** 
 666:Generated_Source\PSoC4/ledDimmer.c **** #if (ledDimmer_UseStatus || ledDimmer_UsingFixedFunction)
 667:Generated_Source\PSoC4/ledDimmer.c **** 
 668:Generated_Source\PSoC4/ledDimmer.c **** 
 669:Generated_Source\PSoC4/ledDimmer.c ****     /*******************************************************************************
 670:Generated_Source\PSoC4/ledDimmer.c ****     * Function Name: ledDimmer_SetInterruptMode
 671:Generated_Source\PSoC4/ledDimmer.c ****     ********************************************************************************
 672:Generated_Source\PSoC4/ledDimmer.c ****     *
 673:Generated_Source\PSoC4/ledDimmer.c ****     * Summary:
 674:Generated_Source\PSoC4/ledDimmer.c ****     *  This function configures the interrupts mask control of theinterrupt
 675:Generated_Source\PSoC4/ledDimmer.c ****     *  source status register.
 676:Generated_Source\PSoC4/ledDimmer.c ****     *
 677:Generated_Source\PSoC4/ledDimmer.c ****     * Parameters:
ARM GAS  C:\Users\Muneeb\AppData\Local\Temp\ccEHy26d.s 			page 21


 678:Generated_Source\PSoC4/ledDimmer.c ****     *  uint8 interruptMode: Bit field containing the interrupt sources enabled
 679:Generated_Source\PSoC4/ledDimmer.c ****     *
 680:Generated_Source\PSoC4/ledDimmer.c ****     * Return:
 681:Generated_Source\PSoC4/ledDimmer.c ****     *  None
 682:Generated_Source\PSoC4/ledDimmer.c ****     *
 683:Generated_Source\PSoC4/ledDimmer.c ****     *******************************************************************************/
 684:Generated_Source\PSoC4/ledDimmer.c ****     void ledDimmer_SetInterruptMode(uint8 interruptMode) 
 685:Generated_Source\PSoC4/ledDimmer.c ****     {
 463              		.loc 1 685 0
 464              		.cfi_startproc
 465              		@ args = 0, pretend = 0, frame = 8
 466              		@ frame_needed = 1, uses_anonymous_args = 0
 467 0000 80B5     		push	{r7, lr}
 468              		.cfi_def_cfa_offset 8
 469              		.cfi_offset 7, -8
 470              		.cfi_offset 14, -4
 471 0002 82B0     		sub	sp, sp, #8
 472              		.cfi_def_cfa_offset 16
 473 0004 00AF     		add	r7, sp, #0
 474              		.cfi_def_cfa_register 7
 475 0006 0200     		movs	r2, r0
 476 0008 FB1D     		adds	r3, r7, #7
 477 000a 1A70     		strb	r2, [r3]
 686:Generated_Source\PSoC4/ledDimmer.c ****         CY_SET_REG8(ledDimmer_STATUS_MASK_PTR, interruptMode);
 478              		.loc 1 686 0
 479 000c 034A     		ldr	r2, .L31
 480 000e FB1D     		adds	r3, r7, #7
 481 0010 1B78     		ldrb	r3, [r3]
 482 0012 1370     		strb	r3, [r2]
 687:Generated_Source\PSoC4/ledDimmer.c ****     }
 483              		.loc 1 687 0
 484 0014 C046     		nop
 485 0016 BD46     		mov	sp, r7
 486 0018 02B0     		add	sp, sp, #8
 487              		@ sp needed
 488 001a 80BD     		pop	{r7, pc}
 489              	.L32:
 490              		.align	2
 491              	.L31:
 492 001c 83000F40 		.word	1074724995
 493              		.cfi_endproc
 494              	.LFE11:
 495              		.size	ledDimmer_SetInterruptMode, .-ledDimmer_SetInterruptMode
 496              		.section	.text.ledDimmer_ReadStatusRegister,"ax",%progbits
 497              		.align	2
 498              		.global	ledDimmer_ReadStatusRegister
 499              		.code	16
 500              		.thumb_func
 501              		.type	ledDimmer_ReadStatusRegister, %function
 502              	ledDimmer_ReadStatusRegister:
 503              	.LFB12:
 688:Generated_Source\PSoC4/ledDimmer.c **** 
 689:Generated_Source\PSoC4/ledDimmer.c **** 
 690:Generated_Source\PSoC4/ledDimmer.c ****     /*******************************************************************************
 691:Generated_Source\PSoC4/ledDimmer.c ****     * Function Name: ledDimmer_ReadStatusRegister
 692:Generated_Source\PSoC4/ledDimmer.c ****     ********************************************************************************
 693:Generated_Source\PSoC4/ledDimmer.c ****     *
ARM GAS  C:\Users\Muneeb\AppData\Local\Temp\ccEHy26d.s 			page 22


 694:Generated_Source\PSoC4/ledDimmer.c ****     * Summary:
 695:Generated_Source\PSoC4/ledDimmer.c ****     *  This function returns the current state of the status register.
 696:Generated_Source\PSoC4/ledDimmer.c ****     *
 697:Generated_Source\PSoC4/ledDimmer.c ****     * Parameters:
 698:Generated_Source\PSoC4/ledDimmer.c ****     *  None
 699:Generated_Source\PSoC4/ledDimmer.c ****     *
 700:Generated_Source\PSoC4/ledDimmer.c ****     * Return:
 701:Generated_Source\PSoC4/ledDimmer.c ****     *  uint8 : Current status register value. The status register bits are:
 702:Generated_Source\PSoC4/ledDimmer.c ****     *  [7:6] : Unused(0)
 703:Generated_Source\PSoC4/ledDimmer.c ****     *  [5]   : Kill event output
 704:Generated_Source\PSoC4/ledDimmer.c ****     *  [4]   : FIFO not empty
 705:Generated_Source\PSoC4/ledDimmer.c ****     *  [3]   : FIFO full
 706:Generated_Source\PSoC4/ledDimmer.c ****     *  [2]   : Terminal count
 707:Generated_Source\PSoC4/ledDimmer.c ****     *  [1]   : Compare output 2
 708:Generated_Source\PSoC4/ledDimmer.c ****     *  [0]   : Compare output 1
 709:Generated_Source\PSoC4/ledDimmer.c ****     *
 710:Generated_Source\PSoC4/ledDimmer.c ****     *******************************************************************************/
 711:Generated_Source\PSoC4/ledDimmer.c ****     uint8 ledDimmer_ReadStatusRegister(void) 
 712:Generated_Source\PSoC4/ledDimmer.c ****     {
 504              		.loc 1 712 0
 505              		.cfi_startproc
 506              		@ args = 0, pretend = 0, frame = 0
 507              		@ frame_needed = 1, uses_anonymous_args = 0
 508 0000 80B5     		push	{r7, lr}
 509              		.cfi_def_cfa_offset 8
 510              		.cfi_offset 7, -8
 511              		.cfi_offset 14, -4
 512 0002 00AF     		add	r7, sp, #0
 513              		.cfi_def_cfa_register 7
 713:Generated_Source\PSoC4/ledDimmer.c ****         return (CY_GET_REG8(ledDimmer_STATUS_PTR));
 514              		.loc 1 713 0
 515 0004 024B     		ldr	r3, .L35
 516 0006 1B78     		ldrb	r3, [r3]
 517 0008 DBB2     		uxtb	r3, r3
 714:Generated_Source\PSoC4/ledDimmer.c ****     }
 518              		.loc 1 714 0
 519 000a 1800     		movs	r0, r3
 520 000c BD46     		mov	sp, r7
 521              		@ sp needed
 522 000e 80BD     		pop	{r7, pc}
 523              	.L36:
 524              		.align	2
 525              	.L35:
 526 0010 63000F40 		.word	1074724963
 527              		.cfi_endproc
 528              	.LFE12:
 529              		.size	ledDimmer_ReadStatusRegister, .-ledDimmer_ReadStatusRegister
 530              		.section	.text.ledDimmer_ReadControlRegister,"ax",%progbits
 531              		.align	2
 532              		.global	ledDimmer_ReadControlRegister
 533              		.code	16
 534              		.thumb_func
 535              		.type	ledDimmer_ReadControlRegister, %function
 536              	ledDimmer_ReadControlRegister:
 537              	.LFB13:
 715:Generated_Source\PSoC4/ledDimmer.c **** 
 716:Generated_Source\PSoC4/ledDimmer.c **** #endif /* (ledDimmer_UseStatus || ledDimmer_UsingFixedFunction) */
ARM GAS  C:\Users\Muneeb\AppData\Local\Temp\ccEHy26d.s 			page 23


 717:Generated_Source\PSoC4/ledDimmer.c **** 
 718:Generated_Source\PSoC4/ledDimmer.c **** 
 719:Generated_Source\PSoC4/ledDimmer.c **** #if (ledDimmer_UseControl)
 720:Generated_Source\PSoC4/ledDimmer.c **** 
 721:Generated_Source\PSoC4/ledDimmer.c **** 
 722:Generated_Source\PSoC4/ledDimmer.c ****     /*******************************************************************************
 723:Generated_Source\PSoC4/ledDimmer.c ****     * Function Name: ledDimmer_ReadControlRegister
 724:Generated_Source\PSoC4/ledDimmer.c ****     ********************************************************************************
 725:Generated_Source\PSoC4/ledDimmer.c ****     *
 726:Generated_Source\PSoC4/ledDimmer.c ****     * Summary:
 727:Generated_Source\PSoC4/ledDimmer.c ****     *  Returns the current state of the control register. This API is available
 728:Generated_Source\PSoC4/ledDimmer.c ****     *  only if the control register is not removed.
 729:Generated_Source\PSoC4/ledDimmer.c ****     *
 730:Generated_Source\PSoC4/ledDimmer.c ****     * Parameters:
 731:Generated_Source\PSoC4/ledDimmer.c ****     *  None
 732:Generated_Source\PSoC4/ledDimmer.c ****     *
 733:Generated_Source\PSoC4/ledDimmer.c ****     * Return:
 734:Generated_Source\PSoC4/ledDimmer.c ****     *  uint8 : Current control register value
 735:Generated_Source\PSoC4/ledDimmer.c ****     *
 736:Generated_Source\PSoC4/ledDimmer.c ****     *******************************************************************************/
 737:Generated_Source\PSoC4/ledDimmer.c ****     uint8 ledDimmer_ReadControlRegister(void) 
 738:Generated_Source\PSoC4/ledDimmer.c ****     {
 538              		.loc 1 738 0
 539              		.cfi_startproc
 540              		@ args = 0, pretend = 0, frame = 8
 541              		@ frame_needed = 1, uses_anonymous_args = 0
 542 0000 80B5     		push	{r7, lr}
 543              		.cfi_def_cfa_offset 8
 544              		.cfi_offset 7, -8
 545              		.cfi_offset 14, -4
 546 0002 82B0     		sub	sp, sp, #8
 547              		.cfi_def_cfa_offset 16
 548 0004 00AF     		add	r7, sp, #0
 549              		.cfi_def_cfa_register 7
 739:Generated_Source\PSoC4/ledDimmer.c ****         uint8 result;
 740:Generated_Source\PSoC4/ledDimmer.c **** 
 741:Generated_Source\PSoC4/ledDimmer.c ****         result = CY_GET_REG8(ledDimmer_CONTROL_PTR);
 550              		.loc 1 741 0
 551 0006 054A     		ldr	r2, .L39
 552 0008 FB1D     		adds	r3, r7, #7
 553 000a 1278     		ldrb	r2, [r2]
 554 000c 1A70     		strb	r2, [r3]
 742:Generated_Source\PSoC4/ledDimmer.c ****         return (result);
 555              		.loc 1 742 0
 556 000e FB1D     		adds	r3, r7, #7
 557 0010 1B78     		ldrb	r3, [r3]
 743:Generated_Source\PSoC4/ledDimmer.c ****     }
 558              		.loc 1 743 0
 559 0012 1800     		movs	r0, r3
 560 0014 BD46     		mov	sp, r7
 561 0016 02B0     		add	sp, sp, #8
 562              		@ sp needed
 563 0018 80BD     		pop	{r7, pc}
 564              	.L40:
 565 001a C046     		.align	2
 566              	.L39:
 567 001c 73000F40 		.word	1074724979
ARM GAS  C:\Users\Muneeb\AppData\Local\Temp\ccEHy26d.s 			page 24


 568              		.cfi_endproc
 569              	.LFE13:
 570              		.size	ledDimmer_ReadControlRegister, .-ledDimmer_ReadControlRegister
 571              		.section	.text.ledDimmer_WriteControlRegister,"ax",%progbits
 572              		.align	2
 573              		.global	ledDimmer_WriteControlRegister
 574              		.code	16
 575              		.thumb_func
 576              		.type	ledDimmer_WriteControlRegister, %function
 577              	ledDimmer_WriteControlRegister:
 578              	.LFB14:
 744:Generated_Source\PSoC4/ledDimmer.c **** 
 745:Generated_Source\PSoC4/ledDimmer.c **** 
 746:Generated_Source\PSoC4/ledDimmer.c ****     /*******************************************************************************
 747:Generated_Source\PSoC4/ledDimmer.c ****     * Function Name: ledDimmer_WriteControlRegister
 748:Generated_Source\PSoC4/ledDimmer.c ****     ********************************************************************************
 749:Generated_Source\PSoC4/ledDimmer.c ****     *
 750:Generated_Source\PSoC4/ledDimmer.c ****     * Summary:
 751:Generated_Source\PSoC4/ledDimmer.c ****     *  Sets the bit field of the control register. This API is available only if
 752:Generated_Source\PSoC4/ledDimmer.c ****     *  the control register is not removed.
 753:Generated_Source\PSoC4/ledDimmer.c ****     *
 754:Generated_Source\PSoC4/ledDimmer.c ****     * Parameters:
 755:Generated_Source\PSoC4/ledDimmer.c ****     *  uint8 control: Control register bit field, The status register bits are:
 756:Generated_Source\PSoC4/ledDimmer.c ****     *  [7]   : PWM Enable
 757:Generated_Source\PSoC4/ledDimmer.c ****     *  [6]   : Reset
 758:Generated_Source\PSoC4/ledDimmer.c ****     *  [5:3] : Compare Mode2
 759:Generated_Source\PSoC4/ledDimmer.c ****     *  [2:0] : Compare Mode2
 760:Generated_Source\PSoC4/ledDimmer.c ****     *
 761:Generated_Source\PSoC4/ledDimmer.c ****     * Return:
 762:Generated_Source\PSoC4/ledDimmer.c ****     *  None
 763:Generated_Source\PSoC4/ledDimmer.c ****     *
 764:Generated_Source\PSoC4/ledDimmer.c ****     *******************************************************************************/
 765:Generated_Source\PSoC4/ledDimmer.c ****     void ledDimmer_WriteControlRegister(uint8 control) 
 766:Generated_Source\PSoC4/ledDimmer.c ****     {
 579              		.loc 1 766 0
 580              		.cfi_startproc
 581              		@ args = 0, pretend = 0, frame = 8
 582              		@ frame_needed = 1, uses_anonymous_args = 0
 583 0000 80B5     		push	{r7, lr}
 584              		.cfi_def_cfa_offset 8
 585              		.cfi_offset 7, -8
 586              		.cfi_offset 14, -4
 587 0002 82B0     		sub	sp, sp, #8
 588              		.cfi_def_cfa_offset 16
 589 0004 00AF     		add	r7, sp, #0
 590              		.cfi_def_cfa_register 7
 591 0006 0200     		movs	r2, r0
 592 0008 FB1D     		adds	r3, r7, #7
 593 000a 1A70     		strb	r2, [r3]
 767:Generated_Source\PSoC4/ledDimmer.c ****         CY_SET_REG8(ledDimmer_CONTROL_PTR, control);
 594              		.loc 1 767 0
 595 000c 034A     		ldr	r2, .L42
 596 000e FB1D     		adds	r3, r7, #7
 597 0010 1B78     		ldrb	r3, [r3]
 598 0012 1370     		strb	r3, [r2]
 768:Generated_Source\PSoC4/ledDimmer.c ****     }
 599              		.loc 1 768 0
ARM GAS  C:\Users\Muneeb\AppData\Local\Temp\ccEHy26d.s 			page 25


 600 0014 C046     		nop
 601 0016 BD46     		mov	sp, r7
 602 0018 02B0     		add	sp, sp, #8
 603              		@ sp needed
 604 001a 80BD     		pop	{r7, pc}
 605              	.L43:
 606              		.align	2
 607              	.L42:
 608 001c 73000F40 		.word	1074724979
 609              		.cfi_endproc
 610              	.LFE14:
 611              		.size	ledDimmer_WriteControlRegister, .-ledDimmer_WriteControlRegister
 612              		.section	.text.ledDimmer_ReadCapture,"ax",%progbits
 613              		.align	2
 614              		.global	ledDimmer_ReadCapture
 615              		.code	16
 616              		.thumb_func
 617              		.type	ledDimmer_ReadCapture, %function
 618              	ledDimmer_ReadCapture:
 619              	.LFB15:
 769:Generated_Source\PSoC4/ledDimmer.c **** 
 770:Generated_Source\PSoC4/ledDimmer.c **** #endif /* (ledDimmer_UseControl) */
 771:Generated_Source\PSoC4/ledDimmer.c **** 
 772:Generated_Source\PSoC4/ledDimmer.c **** 
 773:Generated_Source\PSoC4/ledDimmer.c **** #if (!ledDimmer_UsingFixedFunction)
 774:Generated_Source\PSoC4/ledDimmer.c **** 
 775:Generated_Source\PSoC4/ledDimmer.c **** 
 776:Generated_Source\PSoC4/ledDimmer.c ****     /*******************************************************************************
 777:Generated_Source\PSoC4/ledDimmer.c ****     * Function Name: ledDimmer_ReadCapture
 778:Generated_Source\PSoC4/ledDimmer.c ****     ********************************************************************************
 779:Generated_Source\PSoC4/ledDimmer.c ****     *
 780:Generated_Source\PSoC4/ledDimmer.c ****     * Summary:
 781:Generated_Source\PSoC4/ledDimmer.c ****     *  Reads the capture value from the capture FIFO.
 782:Generated_Source\PSoC4/ledDimmer.c ****     *
 783:Generated_Source\PSoC4/ledDimmer.c ****     * Parameters:
 784:Generated_Source\PSoC4/ledDimmer.c ****     *  None
 785:Generated_Source\PSoC4/ledDimmer.c ****     *
 786:Generated_Source\PSoC4/ledDimmer.c ****     * Return:
 787:Generated_Source\PSoC4/ledDimmer.c ****     *  uint8/uint16: The current capture value
 788:Generated_Source\PSoC4/ledDimmer.c ****     *
 789:Generated_Source\PSoC4/ledDimmer.c ****     *******************************************************************************/
 790:Generated_Source\PSoC4/ledDimmer.c ****     uint16 ledDimmer_ReadCapture(void) 
 791:Generated_Source\PSoC4/ledDimmer.c ****     {
 620              		.loc 1 791 0
 621              		.cfi_startproc
 622              		@ args = 0, pretend = 0, frame = 0
 623              		@ frame_needed = 1, uses_anonymous_args = 0
 624 0000 80B5     		push	{r7, lr}
 625              		.cfi_def_cfa_offset 8
 626              		.cfi_offset 7, -8
 627              		.cfi_offset 14, -4
 628 0002 00AF     		add	r7, sp, #0
 629              		.cfi_def_cfa_register 7
 792:Generated_Source\PSoC4/ledDimmer.c ****         return (CY_GET_REG16(ledDimmer_CAPTURE_LSB_PTR));
 630              		.loc 1 792 0
 631 0004 024B     		ldr	r3, .L46
 632 0006 1B88     		ldrh	r3, [r3]
ARM GAS  C:\Users\Muneeb\AppData\Local\Temp\ccEHy26d.s 			page 26


 633 0008 9BB2     		uxth	r3, r3
 793:Generated_Source\PSoC4/ledDimmer.c ****     }
 634              		.loc 1 793 0
 635 000a 1800     		movs	r0, r3
 636 000c BD46     		mov	sp, r7
 637              		@ sp needed
 638 000e 80BD     		pop	{r7, pc}
 639              	.L47:
 640              		.align	2
 641              	.L46:
 642 0010 A4100F40 		.word	1074729124
 643              		.cfi_endproc
 644              	.LFE15:
 645              		.size	ledDimmer_ReadCapture, .-ledDimmer_ReadCapture
 646              		.section	.text.ledDimmer_ReadCompare,"ax",%progbits
 647              		.align	2
 648              		.global	ledDimmer_ReadCompare
 649              		.code	16
 650              		.thumb_func
 651              		.type	ledDimmer_ReadCompare, %function
 652              	ledDimmer_ReadCompare:
 653              	.LFB16:
 794:Generated_Source\PSoC4/ledDimmer.c **** 
 795:Generated_Source\PSoC4/ledDimmer.c **** #endif /* (!ledDimmer_UsingFixedFunction) */
 796:Generated_Source\PSoC4/ledDimmer.c **** 
 797:Generated_Source\PSoC4/ledDimmer.c **** 
 798:Generated_Source\PSoC4/ledDimmer.c **** #if (ledDimmer_UseOneCompareMode)
 799:Generated_Source\PSoC4/ledDimmer.c **** 
 800:Generated_Source\PSoC4/ledDimmer.c **** 
 801:Generated_Source\PSoC4/ledDimmer.c ****     /*******************************************************************************
 802:Generated_Source\PSoC4/ledDimmer.c ****     * Function Name: ledDimmer_ReadCompare
 803:Generated_Source\PSoC4/ledDimmer.c ****     ********************************************************************************
 804:Generated_Source\PSoC4/ledDimmer.c ****     *
 805:Generated_Source\PSoC4/ledDimmer.c ****     * Summary:
 806:Generated_Source\PSoC4/ledDimmer.c ****     *  Reads the compare value for the compare output when the PWM Mode parameter is
 807:Generated_Source\PSoC4/ledDimmer.c ****     *  set to Dither mode, Center Aligned mode, or One Output mode.
 808:Generated_Source\PSoC4/ledDimmer.c ****     *
 809:Generated_Source\PSoC4/ledDimmer.c ****     * Parameters:
 810:Generated_Source\PSoC4/ledDimmer.c ****     *  None
 811:Generated_Source\PSoC4/ledDimmer.c ****     *
 812:Generated_Source\PSoC4/ledDimmer.c ****     * Return:
 813:Generated_Source\PSoC4/ledDimmer.c ****     *  uint8/uint16: Current compare value
 814:Generated_Source\PSoC4/ledDimmer.c ****     *
 815:Generated_Source\PSoC4/ledDimmer.c ****     *******************************************************************************/
 816:Generated_Source\PSoC4/ledDimmer.c ****     uint16 ledDimmer_ReadCompare(void) 
 817:Generated_Source\PSoC4/ledDimmer.c ****     {
 654              		.loc 1 817 0
 655              		.cfi_startproc
 656              		@ args = 0, pretend = 0, frame = 0
 657              		@ frame_needed = 1, uses_anonymous_args = 0
 658 0000 80B5     		push	{r7, lr}
 659              		.cfi_def_cfa_offset 8
 660              		.cfi_offset 7, -8
 661              		.cfi_offset 14, -4
 662 0002 00AF     		add	r7, sp, #0
 663              		.cfi_def_cfa_register 7
 818:Generated_Source\PSoC4/ledDimmer.c ****         #if(ledDimmer_UsingFixedFunction)
ARM GAS  C:\Users\Muneeb\AppData\Local\Temp\ccEHy26d.s 			page 27


 819:Generated_Source\PSoC4/ledDimmer.c ****             return ((uint16)CY_GET_REG16(ledDimmer_COMPARE1_LSB_PTR));
 820:Generated_Source\PSoC4/ledDimmer.c ****         #else
 821:Generated_Source\PSoC4/ledDimmer.c ****             return (CY_GET_REG16(ledDimmer_COMPARE1_LSB_PTR));
 664              		.loc 1 821 0
 665 0004 024B     		ldr	r3, .L50
 666 0006 1B88     		ldrh	r3, [r3]
 667 0008 9BB2     		uxth	r3, r3
 822:Generated_Source\PSoC4/ledDimmer.c ****         #endif /* (ledDimmer_UsingFixedFunction) */
 823:Generated_Source\PSoC4/ledDimmer.c ****     }
 668              		.loc 1 823 0
 669 000a 1800     		movs	r0, r3
 670 000c BD46     		mov	sp, r7
 671              		@ sp needed
 672 000e 80BD     		pop	{r7, pc}
 673              	.L51:
 674              		.align	2
 675              	.L50:
 676 0010 44100F40 		.word	1074729028
 677              		.cfi_endproc
 678              	.LFE16:
 679              		.size	ledDimmer_ReadCompare, .-ledDimmer_ReadCompare
 680              		.section	.text.ledDimmer_ReadPeriod,"ax",%progbits
 681              		.align	2
 682              		.global	ledDimmer_ReadPeriod
 683              		.code	16
 684              		.thumb_func
 685              		.type	ledDimmer_ReadPeriod, %function
 686              	ledDimmer_ReadPeriod:
 687              	.LFB17:
 824:Generated_Source\PSoC4/ledDimmer.c **** 
 825:Generated_Source\PSoC4/ledDimmer.c **** #else
 826:Generated_Source\PSoC4/ledDimmer.c **** 
 827:Generated_Source\PSoC4/ledDimmer.c **** 
 828:Generated_Source\PSoC4/ledDimmer.c ****     /*******************************************************************************
 829:Generated_Source\PSoC4/ledDimmer.c ****     * Function Name: ledDimmer_ReadCompare1
 830:Generated_Source\PSoC4/ledDimmer.c ****     ********************************************************************************
 831:Generated_Source\PSoC4/ledDimmer.c ****     *
 832:Generated_Source\PSoC4/ledDimmer.c ****     * Summary:
 833:Generated_Source\PSoC4/ledDimmer.c ****     *  Reads the compare value for the compare1 output.
 834:Generated_Source\PSoC4/ledDimmer.c ****     *
 835:Generated_Source\PSoC4/ledDimmer.c ****     * Parameters:
 836:Generated_Source\PSoC4/ledDimmer.c ****     *  None
 837:Generated_Source\PSoC4/ledDimmer.c ****     *
 838:Generated_Source\PSoC4/ledDimmer.c ****     * Return:
 839:Generated_Source\PSoC4/ledDimmer.c ****     *  uint8/uint16: Current compare value.
 840:Generated_Source\PSoC4/ledDimmer.c ****     *
 841:Generated_Source\PSoC4/ledDimmer.c ****     *******************************************************************************/
 842:Generated_Source\PSoC4/ledDimmer.c ****     uint16 ledDimmer_ReadCompare1(void) 
 843:Generated_Source\PSoC4/ledDimmer.c ****     {
 844:Generated_Source\PSoC4/ledDimmer.c ****         return (CY_GET_REG16(ledDimmer_COMPARE1_LSB_PTR));
 845:Generated_Source\PSoC4/ledDimmer.c ****     }
 846:Generated_Source\PSoC4/ledDimmer.c **** 
 847:Generated_Source\PSoC4/ledDimmer.c **** 
 848:Generated_Source\PSoC4/ledDimmer.c ****     /*******************************************************************************
 849:Generated_Source\PSoC4/ledDimmer.c ****     * Function Name: ledDimmer_ReadCompare2
 850:Generated_Source\PSoC4/ledDimmer.c ****     ********************************************************************************
 851:Generated_Source\PSoC4/ledDimmer.c ****     *
ARM GAS  C:\Users\Muneeb\AppData\Local\Temp\ccEHy26d.s 			page 28


 852:Generated_Source\PSoC4/ledDimmer.c ****     * Summary:
 853:Generated_Source\PSoC4/ledDimmer.c ****     *  Reads the compare value for the compare2 output.
 854:Generated_Source\PSoC4/ledDimmer.c ****     *
 855:Generated_Source\PSoC4/ledDimmer.c ****     * Parameters:
 856:Generated_Source\PSoC4/ledDimmer.c ****     *  None
 857:Generated_Source\PSoC4/ledDimmer.c ****     *
 858:Generated_Source\PSoC4/ledDimmer.c ****     * Return:
 859:Generated_Source\PSoC4/ledDimmer.c ****     *  uint8/uint16: Current compare value.
 860:Generated_Source\PSoC4/ledDimmer.c ****     *
 861:Generated_Source\PSoC4/ledDimmer.c ****     *******************************************************************************/
 862:Generated_Source\PSoC4/ledDimmer.c ****     uint16 ledDimmer_ReadCompare2(void) 
 863:Generated_Source\PSoC4/ledDimmer.c ****     {
 864:Generated_Source\PSoC4/ledDimmer.c ****         return (CY_GET_REG16(ledDimmer_COMPARE2_LSB_PTR));
 865:Generated_Source\PSoC4/ledDimmer.c ****     }
 866:Generated_Source\PSoC4/ledDimmer.c **** 
 867:Generated_Source\PSoC4/ledDimmer.c **** #endif /* (ledDimmer_UseOneCompareMode) */
 868:Generated_Source\PSoC4/ledDimmer.c **** 
 869:Generated_Source\PSoC4/ledDimmer.c **** 
 870:Generated_Source\PSoC4/ledDimmer.c **** /*******************************************************************************
 871:Generated_Source\PSoC4/ledDimmer.c **** * Function Name: ledDimmer_ReadPeriod
 872:Generated_Source\PSoC4/ledDimmer.c **** ********************************************************************************
 873:Generated_Source\PSoC4/ledDimmer.c **** *
 874:Generated_Source\PSoC4/ledDimmer.c **** * Summary:
 875:Generated_Source\PSoC4/ledDimmer.c **** *  Reads the period value used by the PWM hardware.
 876:Generated_Source\PSoC4/ledDimmer.c **** *
 877:Generated_Source\PSoC4/ledDimmer.c **** * Parameters:
 878:Generated_Source\PSoC4/ledDimmer.c **** *  None
 879:Generated_Source\PSoC4/ledDimmer.c **** *
 880:Generated_Source\PSoC4/ledDimmer.c **** * Return:
 881:Generated_Source\PSoC4/ledDimmer.c **** *  uint8/16: Period value
 882:Generated_Source\PSoC4/ledDimmer.c **** *
 883:Generated_Source\PSoC4/ledDimmer.c **** *******************************************************************************/
 884:Generated_Source\PSoC4/ledDimmer.c **** uint16 ledDimmer_ReadPeriod(void) 
 885:Generated_Source\PSoC4/ledDimmer.c **** {
 688              		.loc 1 885 0
 689              		.cfi_startproc
 690              		@ args = 0, pretend = 0, frame = 0
 691              		@ frame_needed = 1, uses_anonymous_args = 0
 692 0000 80B5     		push	{r7, lr}
 693              		.cfi_def_cfa_offset 8
 694              		.cfi_offset 7, -8
 695              		.cfi_offset 14, -4
 696 0002 00AF     		add	r7, sp, #0
 697              		.cfi_def_cfa_register 7
 886:Generated_Source\PSoC4/ledDimmer.c ****     #if(ledDimmer_UsingFixedFunction)
 887:Generated_Source\PSoC4/ledDimmer.c ****         return ((uint16)CY_GET_REG16(ledDimmer_PERIOD_LSB_PTR));
 888:Generated_Source\PSoC4/ledDimmer.c ****     #else
 889:Generated_Source\PSoC4/ledDimmer.c ****         return (CY_GET_REG16(ledDimmer_PERIOD_LSB_PTR));
 698              		.loc 1 889 0
 699 0004 024B     		ldr	r3, .L54
 700 0006 1B88     		ldrh	r3, [r3]
 701 0008 9BB2     		uxth	r3, r3
 890:Generated_Source\PSoC4/ledDimmer.c ****     #endif /* (ledDimmer_UsingFixedFunction) */
 891:Generated_Source\PSoC4/ledDimmer.c **** }
 702              		.loc 1 891 0
 703 000a 1800     		movs	r0, r3
 704 000c BD46     		mov	sp, r7
ARM GAS  C:\Users\Muneeb\AppData\Local\Temp\ccEHy26d.s 			page 29


 705              		@ sp needed
 706 000e 80BD     		pop	{r7, pc}
 707              	.L55:
 708              		.align	2
 709              	.L54:
 710 0010 84100F40 		.word	1074729092
 711              		.cfi_endproc
 712              	.LFE17:
 713              		.size	ledDimmer_ReadPeriod, .-ledDimmer_ReadPeriod
 714              		.text
 715              	.Letext0:
 716              		.file 2 "Generated_Source\\PSoC4\\cytypes.h"